Certificate:
    Data:
        Version: 3 (0x2)
        Serial Number: 1 (0x1)
    Signature Algorithm: sha256WithRSAEncryption
        Issuer: C=GB, ST=Derbyshire, O=Paho Project, OU=Testing, CN=Signing CA
        Validity
            Not Before: Aug  1 19:40:51 2018 GMT
            Not After : Jul 31 19:40:51 2023 GMT
        Subject: C=GB, ST=Nottinghamshire, L=Nottingham, O=Server, OU=Production, CN=localhost
        Subject Public Key Info:
            Public Key Algorithm: rsaEncryption
                Public-Key: (1024 bit)
                Modulus:
                    00:b0:91:37:d0:0e:72:75:f0:0c:47:4a:eb:1d:bc:
                    b1:8b:a5:96:a9:17:02:eb:46:da:dc:63:a1:43:14:
                    15:77:bd:1f:ff:82:fd:4b:4b:f0:1d:c8:57:21:3d:
                    fd:ba:18:49:a7:5b:0b:ce:6b:51:29:b2:6c:c7:86:
                    21:87:6f:27:93:ee:6a:4e:5a:43:fa:6f:b8:2f:6d:
                    cb:a3:0b:36:a0:8c:0b:3b:76:a8:ad:91:0a:54:d4:
                    4a:43:ec:7f:14:fa:4a:3f:22:98:ce:65:32:f2:e1:
                    09:a1:cf:91:98:37:c0:24:0a:25:80:be:5f:67:b4:
                    39:0c:a3:e9:09:4a:b2:31:9d
                Exponent: 65537 (0x10001)
        X509v3 extensions:
            X509v3 Basic Constraints: 
                CA:FALSE
            Netscape Comment: 
                OpenSSL Generated Certificate
            X509v3 Subject Key Identifier: 
                5F:3A:6F:C9:EA:B4:CF:02:87:ED:EC:03:BA:55:95:5B:89:27:91:4B
            X509v3 Authority Key Identifier: 
                keyid:8E:5E:D3:57:86:1A:E3:60:50:AE:BF:77:27:55:9B:4A:38:0D:EC:5B

    Signature Algorithm: sha256WithRSAEncryption
         a6:ba:5e:42:c5:12:10:77:ee:99:de:db:4c:25:32:d6:1d:e1:
         92:80:b2:7e:76:0f:41:b4:ae:1a:61:c6:94:91:33:c4:da:b1:
         46:73:6b:88:cc:d1:78:ed:dd:f3:e3:c5:f1:c7:ee:b0:5b:47:
         0c:28:4e:67:a2:56:1e:44:9a:66:e1:9c:97:6a:51:66:c6:b8:
         7b:a6:99:a6:56:26:61:f7:c4:15:a5:88:56:f9:ee:d7:9a:27:
         21:d9:a8:9b:1a:f0:4b:03:38:16:8b:f2:f4:8b:0a:c3:61:aa:
         54:34:c0:73:51:79:19:54:78:ab:16:5c:dc:bf:ad:d6:f3:8b:
         a5:11
-----BEGIN CERTIFICATE-----
MIICxzCCAjCgAwIBAgIBATANBgkqhkiG9w0BAQsFADBgMQswCQYDVQQGEwJHQjET
MBEGA1UECAwKRGVyYnlzaGlyZTEVMBMGA1UECgwMUGFobyBQcm9qZWN0MRAwDgYD
VQQLDAdUZXN0aW5nMRMwEQYDVQQDDApTaWduaW5nIENBMB4XDTE4MDgwMTE5NDA1
MVoXDTIzMDczMTE5NDA1MVowdjELMAkGA1UEBhMCR0IxGDAWBgNVBAgMD05vdHRp
bmdoYW1zaGlyZTETMBEGA1UEBwwKTm90dGluZ2hhbTEPMA0GA1UECgwGU2VydmVy
MRMwEQYDVQQLDApQcm9kdWN0aW9uMRIwEAYDVQQDDAlsb2NhbGhvc3QwgZ8wDQYJ
KoZIhvcNAQEBBQADgY0AMIGJAoGBALCRN9AOcnXwDEdK6x28sYullqkXAutG2txj
oUMUFXe9H/+C/UtL8B3IVyE9/boYSadbC85rUSmybMeGIYdvJ5Puak5aQ/pvuC9t
y6MLNqCMCzt2qK2RClTUSkPsfxT6Sj8imM5lMvLhCaHPkZg3wCQKJYC+X2e0OQyj
6QlKsjGdAgMBAAGjezB5MAkGA1UdEwQCMAAwLAYJYIZIAYb4QgENBB8WHU9wZW5T
U0wgR2VuZXJhdGVkIENlcnRpZmljYXRlMB0GA1UdDgQWBBRfOm/J6rTPAoft7AO6
VZVbiSeRSzAfBgNVHSMEGDAWgBSOXtNXhhrjYFCuv3cnVZtKOA3sWzANBgkqhkiG
9w0BAQsFAAOBgQCmul5CxRIQd+6Z3ttMJTLWHeGSgLJ+dg9BtK4aYcaUkTPE2rFG
c2uIzNF47d3z48Xxx+6wW0cMKE5nolYeRJpm4ZyXalFmxrh7ppmmViZh98QVpYhW
+e7Xmich2aibGvBLAzgWi/L0iwrDYapUNMBzUXkZVHirFlzcv63W84ulEQ==
-----END CERTIFICATE-----
