Certificate:
    Data:
        Version: 3 (0x2)
        Serial Number: 1 (0x1)
    Signature Algorithm: sha1WithRSAEncryption
        Issuer: C=GB, ST=Derbyshire, O=Paho Project, OU=Testing, CN=Signing CA
        Validity
            Not Before: Jul 29 19:21:30 2013 GMT
            Not After : Jul 28 19:21:30 2018 GMT
        Subject: C=GB, ST=Nottinghamshire, L=Nottingham, O=Server, OU=Production, CN=localhost
        Subject Public Key Info:
            Public Key Algorithm: rsaEncryption
                Public-Key: (1024 bit)
                Modulus:
                    00:be:b7:65:98:5e:e1:e0:68:e7:14:04:e5:40:2d:
                    d3:b4:f2:b2:dd:6e:5c:97:7a:5b:c5:4f:7a:45:11:
                    99:4e:56:30:c6:d6:50:29:88:c3:31:6d:b0:f1:a8:
                    5f:f5:fd:cc:d1:52:0f:40:70:04:cc:14:0d:98:45:
                    62:a8:f9:88:0a:be:20:32:53:c5:48:fb:b0:e4:25:
                    db:25:ec:0d:c4:6a:28:dc:af:d7:2d:63:99:b9:f4:
                    c0:32:54:dc:be:4d:9f:7f:67:7e:2a:be:82:2d:de:
                    37:35:0b:0d:7b:b8:9c:55:ff:cf:ab:fe:61:e9:8c:
                    bf:c4:27:e2:56:2f:1a:73:87
                Exponent: 65537 (0x10001)
        X509v3 extensions:
            X509v3 Basic Constraints: 
                CA:FALSE
            Netscape Comment: 
                OpenSSL Generated Certificate
            X509v3 Subject Key Identifier: 
                A1:8C:9A:D1:28:58:68:C5:46:5B:FA:C5:48:01:96:67:55:97:65:8A
            X509v3 Authority Key Identifier: 
                keyid:29:4D:6E:C7:F2:F7:71:72:DA:27:9C:9C:AB:DA:07:1D:47:9C:D8:41

    Signature Algorithm: sha1WithRSAEncryption
         78:f6:a1:34:ac:2c:a5:0a:1d:82:97:97:1f:f5:03:44:a7:c0:
         4d:e8:8d:67:e7:71:50:30:3c:8b:77:eb:81:96:78:6b:ab:31:
         5a:ba:7b:1c:ad:ec:fd:a6:5d:73:ef:99:2d:6f:9f:7e:13:ac:
         b2:61:2f:e4:56:cc:28:f1:e4:7f:ea:a9:b2:f2:85:87:68:52:
         65:b0:42:54:84:92:2f:fb:45:d4:36:e2:3c:0e:4c:a6:6d:82:
         8f:72:c0:66:0c:5f:b2:a7:7c:9b:be:cd:19:55:5d:40:27:99:
         14:e2:cf:59:cb:4b:40:e4:98:2d:f7:93:14:4a:50:dc:75:9c:
         5c:9d
-----BEGIN CERTIFICATE-----
MIICxzCCAjCgAwIBAgIBATANBgkqhkiG9w0BAQUFADBgMQswCQYDVQQGEwJHQjET
MBEGA1UECAwKRGVyYnlzaGlyZTEVMBMGA1UECgwMUGFobyBQcm9qZWN0MRAwDgYD
VQQLDAdUZXN0aW5nMRMwEQYDVQQDDApTaWduaW5nIENBMB4XDTEzMDcyOTE5MjEz
MFoXDTE4MDcyODE5MjEzMFowdjELMAkGA1UEBhMCR0IxGDAWBgNVBAgMD05vdHRp
bmdoYW1zaGlyZTETMBEGA1UEBwwKTm90dGluZ2hhbTEPMA0GA1UECgwGU2VydmVy
MRMwEQYDVQQLDApQcm9kdWN0aW9uMRIwEAYDVQQDDAlsb2NhbGhvc3QwgZ8wDQYJ
KoZIhvcNAQEBBQADgY0AMIGJAoGBAL63ZZhe4eBo5xQE5UAt07Tyst1uXJd6W8VP
ekURmU5WMMbWUCmIwzFtsPGoX/X9zNFSD0BwBMwUDZhFYqj5iAq+IDJTxUj7sOQl
2yXsDcRqKNyv1y1jmbn0wDJU3L5Nn39nfiq+gi3eNzULDXu4nFX/z6v+YemMv8Qn
4lYvGnOHAgMBAAGjezB5MAkGA1UdEwQCMAAwLAYJYIZIAYb4QgENBB8WHU9wZW5T
U0wgR2VuZXJhdGVkIENlcnRpZmljYXRlMB0GA1UdDgQWBBShjJrRKFhoxUZb+sVI
AZZnVZdlijAfBgNVHSMEGDAWgBQpTW7H8vdxctonnJyr2gcdR5zYQTANBgkqhkiG
9w0BAQUFAAOBgQB49qE0rCylCh2Cl5cf9QNEp8BN6I1n53FQMDyLd+uBlnhrqzFa
unscrez9pl1z75ktb59+E6yyYS/kVswo8eR/6qmy8oWHaFJlsEJUhJIv+0XUNuI8
DkymbYKPcsBmDF+yp3ybvs0ZVV1AJ5kU4s9Zy0tA5Jgt95MUSlDcdZxcnQ==
-----END CERTIFICATE-----
