Certificate:
    Data:
        Version: 3 (0x2)
        Serial Number: 3 (0x3)
    Signature Algorithm: sha1WithRSAEncryption
        Issuer: C=GB, ST=Derbyshire, O=Paho Project, OU=Testing, CN=Signing CA
        Validity
            Not Before: Aug 20 00:00:00 2012 GMT
            Not After : Aug 21 00:00:00 2012 GMT
        Subject: C=GB, ST=Nottinghamshire, L=Nottingham, O=Server, OU=Production, CN=test client expired
        Subject Public Key Info:
            Public Key Algorithm: rsaEncryption
                Public-Key: (1024 bit)
                Modulus:
                    00:dc:17:82:af:47:dc:71:77:73:c3:69:11:4b:ff:
                    27:0e:29:4b:e6:6f:11:78:e4:56:88:c9:34:13:12:
                    e1:82:ec:24:fe:65:c8:9d:bb:05:54:20:d0:b4:31:
                    b9:4b:87:f8:4d:e5:c1:ba:99:f8:a2:cc:ff:8e:89:
                    f2:7a:68:2f:53:42:4d:73:19:5e:ca:7e:b2:fe:3b:
                    f7:d1:bc:e8:24:fa:77:47:ee:a4:89:cf:d1:dc:e9:
                    99:3f:da:0e:d0:1e:c6:40:d2:60:ee:38:83:4e:a4:
                    dd:46:a3:6a:ac:c9:61:af:d5:23:9d:23:14:b5:31:
                    d5:ca:66:7a:30:3f:c2:ce:59
                Exponent: 65537 (0x10001)
        X509v3 extensions:
            X509v3 Basic Constraints: 
                CA:FALSE
            Netscape Comment: 
                OpenSSL Generated Certificate
            X509v3 Subject Key Identifier: 
                17:CD:6D:67:FB:7D:77:59:0F:6C:F1:9B:0E:B0:EB:AE:BE:E0:9D:47
            X509v3 Authority Key Identifier: 
                keyid:29:4D:6E:C7:F2:F7:71:72:DA:27:9C:9C:AB:DA:07:1D:47:9C:D8:41

    Signature Algorithm: sha1WithRSAEncryption
         7f:c3:be:e2:5b:d5:68:27:a6:ea:5a:9d:13:f1:21:47:56:7e:
         19:1e:35:47:2c:35:ff:df:81:71:9a:89:04:d0:f1:e6:49:ee:
         c7:2a:a7:5d:2e:f2:19:18:77:f3:fe:c8:21:87:28:51:d5:1a:
         1b:7d:d3:36:58:42:39:df:7b:c8:41:a5:71:1f:56:6c:67:c5:
         ee:07:45:ad:1a:91:ed:89:ce:ee:8e:48:cd:32:8e:a4:6a:ae:
         55:bb:3d:c0:77:e7:7a:e3:9d:25:d0:5c:03:6c:be:25:16:67:
         0f:d5:e3:c9:7a:c3:66:8d:8b:09:bf:e5:3d:b7:31:d6:80:d6:
         fd:c7
-----BEGIN CERTIFICATE-----
MIIC0jCCAjugAwIBAgIBAzANBgkqhkiG9w0BAQUFADBgMQswCQYDVQQGEwJHQjET
MBEGA1UECAwKRGVyYnlzaGlyZTEVMBMGA1UECgwMUGFobyBQcm9qZWN0MRAwDgYD
VQQLDAdUZXN0aW5nMRMwEQYDVQQDDApTaWduaW5nIENBMB4XDTEyMDgyMDAwMDAw
MFoXDTEyMDgyMTAwMDAwMFowgYAxCzAJBgNVBAYTAkdCMRgwFgYDVQQIDA9Ob3R0
aW5naGFtc2hpcmUxEzARBgNVBAcMCk5vdHRpbmdoYW0xDzANBgNVBAoMBlNlcnZl
cjETMBEGA1UECwwKUHJvZHVjdGlvbjEcMBoGA1UEAwwTdGVzdCBjbGllbnQgZXhw
aXJlZDCBnzANBgkqhkiG9w0BAQEFAAOBjQAwgYkCgYEA3BeCr0fccXdzw2kRS/8n
DilL5m8ReORWiMk0ExLhguwk/mXInbsFVCDQtDG5S4f4TeXBupn4osz/jonyemgv
U0JNcxleyn6y/jv30bzoJPp3R+6kic/R3OmZP9oO0B7GQNJg7jiDTqTdRqNqrMlh
r9UjnSMUtTHVymZ6MD/CzlkCAwEAAaN7MHkwCQYDVR0TBAIwADAsBglghkgBhvhC
AQ0EHxYdT3BlblNTTCBHZW5lcmF0ZWQgQ2VydGlmaWNhdGUwHQYDVR0OBBYEFBfN
bWf7fXdZD2zxmw6w666+4J1HMB8GA1UdIwQYMBaAFClNbsfy93Fy2iecnKvaBx1H
nNhBMA0GCSqGSIb3DQEBBQUAA4GBAH/DvuJb1WgnpupanRPxIUdWfhkeNUcsNf/f
gXGaiQTQ8eZJ7scqp10u8hkYd/P+yCGHKFHVGht90zZYQjnfe8hBpXEfVmxnxe4H
Ra0ake2Jzu6OSM0yjqRqrlW7PcB353rjnSXQXANsviUWZw/V48l6w2aNiwm/5T23
MdaA1v3H
-----END CERTIFICATE-----
