Certificate:
    Data:
        Version: 3 (0x2)
        Serial Number: 4 (0x4)
    Signature Algorithm: sha256WithRSAEncryption
        Issuer: C=GB, ST=Derbyshire, O=Paho Project, OU=Testing, CN=Signing CA
        Validity
            Not Before: Aug  1 19:40:56 2018 GMT
            Not After : Jul 31 19:40:56 2023 GMT
        Subject: C=GB, ST=Nottinghamshire, L=Nottingham, O=Server, OU=Production, CN=test client revoked
        Subject Public Key Info:
            Public Key Algorithm: rsaEncryption
                Public-Key: (1024 bit)
                Modulus:
                    00:e3:55:e2:2b:b8:3d:f5:ef:95:05:a2:34:14:c5:
                    49:e2:5d:89:96:79:cc:41:ae:ab:6f:ef:05:38:18:
                    82:33:e2:98:58:7d:23:57:e8:6d:14:ac:08:49:87:
                    c3:ea:f5:11:41:aa:d1:3e:00:0e:a6:5f:13:e0:66:
                    36:5d:1c:6d:b3:35:0e:bc:1e:05:ca:a6:b3:b9:d0:
                    98:c1:69:fc:e5:b3:fa:50:dc:f4:b4:d0:81:2e:f7:
                    bd:72:26:e6:3b:4e:ef:0b:ea:15:22:bb:f2:5a:2f:
                    e2:97:59:ea:6f:5e:fc:7c:fd:01:1c:e5:5a:8f:fa:
                    72:a5:2f:78:3d:0f:7a:4a:ff
                Exponent: 65537 (0x10001)
        X509v3 extensions:
            X509v3 Basic Constraints: 
                CA:FALSE
            Netscape Comment: 
                OpenSSL Generated Certificate
            X509v3 Subject Key Identifier: 
                22:EF:8F:F5:B7:BE:29:70:7F:AE:BA:E9:69:8F:60:3A:51:EE:C7:AE
            X509v3 Authority Key Identifier: 
                keyid:8E:5E:D3:57:86:1A:E3:60:50:AE:BF:77:27:55:9B:4A:38:0D:EC:5B

    Signature Algorithm: sha256WithRSAEncryption
         8a:91:e2:07:2a:97:61:1b:c6:a6:94:e0:3f:84:1d:a5:58:50:
         ad:72:51:79:9f:68:4e:43:f0:b5:86:dc:ca:1b:94:d7:f8:d5:
         65:e0:5e:98:96:29:f0:bb:41:3a:eb:d6:a7:9d:52:01:6c:1c:
         04:ef:56:28:06:55:7b:1c:b2:5c:91:ca:55:d6:78:36:92:35:
         eb:67:69:46:52:b3:9b:10:dc:fe:fa:f5:24:8e:e8:94:8e:be:
         12:74:c3:a3:7c:69:52:ac:a3:5a:77:97:01:2b:f7:ad:22:d0:
         23:54:a1:67:1a:52:20:9a:f6:0f:99:18:27:10:78:6e:3e:36:
         c4:61
-----BEGIN CERTIFICATE-----
MIIC0jCCAjugAwIBAgIBBDANBgkqhkiG9w0BAQsFADBgMQswCQYDVQQGEwJHQjET
MBEGA1UECAwKRGVyYnlzaGlyZTEVMBMGA1UECgwMUGFobyBQcm9qZWN0MRAwDgYD
VQQLDAdUZXN0aW5nMRMwEQYDVQQDDApTaWduaW5nIENBMB4XDTE4MDgwMTE5NDA1
NloXDTIzMDczMTE5NDA1NlowgYAxCzAJBgNVBAYTAkdCMRgwFgYDVQQIDA9Ob3R0
aW5naGFtc2hpcmUxEzARBgNVBAcMCk5vdHRpbmdoYW0xDzANBgNVBAoMBlNlcnZl
cjETMBEGA1UECwwKUHJvZHVjdGlvbjEcMBoGA1UEAwwTdGVzdCBjbGllbnQgcmV2
b2tlZDCBnzANBgkqhkiG9w0BAQEFAAOBjQAwgYkCgYEA41XiK7g99e+VBaI0FMVJ
4l2JlnnMQa6rb+8FOBiCM+KYWH0jV+htFKwISYfD6vURQarRPgAOpl8T4GY2XRxt
szUOvB4FyqazudCYwWn85bP6UNz0tNCBLve9cibmO07vC+oVIrvyWi/il1nqb178
fP0BHOVaj/pypS94PQ96Sv8CAwEAAaN7MHkwCQYDVR0TBAIwADAsBglghkgBhvhC
AQ0EHxYdT3BlblNTTCBHZW5lcmF0ZWQgQ2VydGlmaWNhdGUwHQYDVR0OBBYEFCLv
j/W3vilwf6666WmPYDpR7seuMB8GA1UdIwQYMBaAFI5e01eGGuNgUK6/dydVm0o4
DexbMA0GCSqGSIb3DQEBCwUAA4GBAIqR4gcql2EbxqaU4D+EHaVYUK1yUXmfaE5D
8LWG3MoblNf41WXgXpiWKfC7QTrr1qedUgFsHATvVigGVXscslyRylXWeDaSNetn
aUZSs5sQ3P769SSO6JSOvhJ0w6N8aVKso1p3lwEr960i0CNUoWcaUiCa9g+ZGCcQ
eG4+NsRh
-----END CERTIFICATE-----
