Certificate:
    Data:
        Version: 3 (0x2)
        Serial Number: 4 (0x4)
    Signature Algorithm: sha1WithRSAEncryption
        Issuer: C=GB, ST=Derbyshire, O=Paho Project, OU=Testing, CN=Signing CA
        Validity
            Not Before: Jul 29 19:21:31 2013 GMT
            Not After : Jul 28 19:21:31 2018 GMT
        Subject: C=GB, ST=Nottinghamshire, L=Nottingham, O=Server, OU=Production, CN=test client revoked
        Subject Public Key Info:
            Public Key Algorithm: rsaEncryption
                Public-Key: (1024 bit)
                Modulus:
                    00:bb:3b:8f:80:95:a8:32:56:ed:b9:c0:79:7f:36:
                    ef:33:39:1b:b1:c3:1c:0b:51:1b:0a:d4:04:ee:39:
                    94:ab:fe:bb:d5:c9:72:be:e0:4c:f4:17:17:fe:a4:
                    e1:f1:69:2c:67:89:63:e7:0f:84:db:6c:bb:12:fb:
                    29:4f:63:11:da:cc:22:85:c4:e8:bf:01:ea:3b:43:
                    b5:32:48:85:39:74:e5:0d:79:f1:12:19:01:b3:48:
                    bc:be:aa:9a:74:95:bb:d1:a6:78:51:cc:5b:0f:bc:
                    af:78:01:7b:42:36:43:41:49:7a:25:24:7e:1c:17:
                    3a:4e:bb:a2:e9:65:3c:86:87
                Exponent: 65537 (0x10001)
        X509v3 extensions:
            X509v3 Basic Constraints: 
                CA:FALSE
            Netscape Comment: 
                OpenSSL Generated Certificate
            X509v3 Subject Key Identifier: 
                D8:E8:12:3D:B4:66:6A:1C:DC:F7:14:0D:55:0D:9D:81:A7:1C:52:35
            X509v3 Authority Key Identifier: 
                keyid:29:4D:6E:C7:F2:F7:71:72:DA:27:9C:9C:AB:DA:07:1D:47:9C:D8:41

    Signature Algorithm: sha1WithRSAEncryption
         07:18:d5:41:31:1b:85:fe:ab:e9:f5:48:c1:c6:38:e1:28:28:
         90:66:10:8c:d7:ef:15:b7:da:89:5e:78:7d:dc:e5:45:e6:2a:
         df:1f:3d:80:5f:0c:87:c8:5c:7e:bd:5b:1c:e3:a0:e2:ab:ee:
         e7:8b:82:ec:94:2a:c4:1e:62:fd:4f:f7:ce:78:8f:a5:5a:96:
         a7:76:3b:f5:37:73:1f:a0:d7:f0:6f:c5:d6:42:6a:bd:51:2d:
         f1:4c:1b:3e:63:51:3f:47:7f:88:a7:16:de:c7:c0:3c:96:78:
         a7:76:17:b9:48:85:83:18:bf:9d:b6:14:fa:1e:63:f9:86:2c:
         8a:b1
-----BEGIN CERTIFICATE-----
MIIC0jCCAjugAwIBAgIBBDANBgkqhkiG9w0BAQUFADBgMQswCQYDVQQGEwJHQjET
MBEGA1UECAwKRGVyYnlzaGlyZTEVMBMGA1UECgwMUGFobyBQcm9qZWN0MRAwDgYD
VQQLDAdUZXN0aW5nMRMwEQYDVQQDDApTaWduaW5nIENBMB4XDTEzMDcyOTE5MjEz
MVoXDTE4MDcyODE5MjEzMVowgYAxCzAJBgNVBAYTAkdCMRgwFgYDVQQIDA9Ob3R0
aW5naGFtc2hpcmUxEzARBgNVBAcMCk5vdHRpbmdoYW0xDzANBgNVBAoMBlNlcnZl
cjETMBEGA1UECwwKUHJvZHVjdGlvbjEcMBoGA1UEAwwTdGVzdCBjbGllbnQgcmV2
b2tlZDCBnzANBgkqhkiG9w0BAQEFAAOBjQAwgYkCgYEAuzuPgJWoMlbtucB5fzbv
MzkbscMcC1EbCtQE7jmUq/671clyvuBM9BcX/qTh8WksZ4lj5w+E22y7EvspT2MR
2swihcTovwHqO0O1MkiFOXTlDXnxEhkBs0i8vqqadJW70aZ4UcxbD7yveAF7QjZD
QUl6JSR+HBc6Trui6WU8hocCAwEAAaN7MHkwCQYDVR0TBAIwADAsBglghkgBhvhC
AQ0EHxYdT3BlblNTTCBHZW5lcmF0ZWQgQ2VydGlmaWNhdGUwHQYDVR0OBBYEFNjo
Ej20Zmoc3PcUDVUNnYGnHFI1MB8GA1UdIwQYMBaAFClNbsfy93Fy2iecnKvaBx1H
nNhBMA0GCSqGSIb3DQEBBQUAA4GBAAcY1UExG4X+q+n1SMHGOOEoKJBmEIzX7xW3
2oleeH3c5UXmKt8fPYBfDIfIXH69WxzjoOKr7ueLguyUKsQeYv1P9854j6Valqd2
O/U3cx+g1/BvxdZCar1RLfFMGz5jUT9Hf4inFt7HwDyWeKd2F7lIhYMYv522FPoe
Y/mGLIqx
-----END CERTIFICATE-----
