Certificate:
    Data:
        Version: 3 (0x2)
        Serial Number: 4 (0x4)
        Signature Algorithm: sha256WithRSAEncryption
        Issuer: C=GB, ST=Derbyshire, O=Paho Project, OU=Testing, CN=Signing CA
        Validity
            Not Before: Jul 28 09:12:11 2020 GMT
            Not After : Jul 27 09:12:11 2025 GMT
        Subject: C=GB, ST=Nottinghamshire, L=Nottingham, O=Server, OU=Production, CN=test client revoked
        Subject Public Key Info:
            Public Key Algorithm: rsaEncryption
                RSA Public-Key: (2048 bit)
                Modulus:
                    00:a4:22:2c:88:b3:4f:f2:a0:b0:18:7d:28:d8:b4:
                    69:72:a0:ad:90:f9:c4:1b:c1:f9:b1:e0:e5:87:02:
                    74:21:6d:ad:87:87:e2:6b:af:82:02:6f:e8:65:a9:
                    04:f8:05:a5:90:59:de:c9:26:41:a3:7b:dd:d6:91:
                    0f:6b:57:92:04:54:e6:a1:74:1c:af:38:b7:f9:e8:
                    c8:fb:bb:ff:ac:23:58:77:17:3a:76:42:a6:0f:f1:
                    dc:bc:76:7e:25:1b:8a:89:8a:5b:06:76:41:6a:29:
                    5c:72:27:e4:1b:68:c7:ca:3d:57:31:5e:9a:9d:5c:
                    88:c8:bc:d8:e6:bd:b5:be:91:88:e4:4e:8b:37:33:
                    13:6d:00:37:b4:12:02:da:1c:31:61:0e:e8:b5:0d:
                    f2:f4:e2:46:55:d1:21:bf:ea:92:c3:8c:3d:16:0c:
                    a4:e5:dd:d6:e5:f6:39:b5:4d:69:65:c0:fe:bf:1c:
                    33:23:b4:f8:94:40:28:47:e7:8f:59:06:31:72:4b:
                    6b:55:f2:7d:aa:c6:96:ff:1c:08:28:ab:82:b7:99:
                    22:1f:1c:08:54:d1:4c:f6:f2:79:06:77:da:58:63:
                    48:47:7f:13:6c:7f:eb:d3:06:1d:25:72:4b:04:d1:
                    2e:1d:76:a8:56:f5:59:bc:be:c7:78:6d:e2:1d:57:
                    b2:f3
                Exponent: 65537 (0x10001)
        X509v3 extensions:
            X509v3 Basic Constraints: 
                CA:FALSE
            Netscape Comment: 
                OpenSSL Generated Certificate
            X509v3 Subject Key Identifier: 
                21:58:60:7A:B1:55:A8:CA:EF:2A:D2:0B:25:83:81:DB:E3:A8:7C:7B
            X509v3 Authority Key Identifier: 
                keyid:63:AD:89:C4:23:13:13:D1:EB:00:4D:01:0E:25:E3:5E:0C:9D:41:C9

    Signature Algorithm: sha256WithRSAEncryption
         ac:60:10:4d:cc:10:f8:71:5f:a2:94:20:d8:9e:8c:d9:fc:10:
         4c:d7:b5:b7:57:8b:08:a5:97:50:24:27:38:47:e9:37:49:35:
         92:07:fc:e2:75:37:4d:3c:b4:24:2c:62:da:6f:40:8a:55:d6:
         a3:bf:ef:a0:90:8d:4e:ee:51:c7:5a:30:cc:36:9f:8c:72:c7:
         36:4c:c4:96:ce:bf:df:e9:58:5a:54:63:be:e5:9c:27:63:e6:
         55:4e:2f:09:df:10:b2:7c:42:eb:f1:86:66:f2:07:ca:b3:e5:
         ca:14:58:34:ac:ac:4e:99:e4:37:c7:b1:8c:56:23:9a:5c:a8:
         fe:17:77:ec:ce:c8:77:25:35:b7:98:1c:90:25:bc:fc:5a:4b:
         85:b0:96:55:ca:cb:83:bc:a1:2a:1a:f1:cb:73:e1:8d:4b:65:
         ca:86:1f:43:a5:f1:4a:86:d2:50:81:c3:c1:e6:c6:ed:15:0f:
         01:2c:58:63:44:4e:17:c0:59:d1:cf:c8:cb:37:9c:9e:dc:e1:
         83:10:90:9e:35:9d:43:23:f2:b9:1d:91:00:33:b4:eb:6a:9d:
         5a:1c:e0:b8:6b:f0:dc:05:ae:15:f3:42:7f:0c:9a:bd:06:25:
         75:79:53:ea:a8:9b:f5:4c:96:52:1a:85:91:a5:68:08:a5:f4:
         32:ca:9d:58
-----BEGIN CERTIFICATE-----
MIID1zCCAr+gAwIBAgIBBDANBgkqhkiG9w0BAQsFADBgMQswCQYDVQQGEwJHQjET
MBEGA1UECAwKRGVyYnlzaGlyZTEVMBMGA1UECgwMUGFobyBQcm9qZWN0MRAwDgYD
VQQLDAdUZXN0aW5nMRMwEQYDVQQDDApTaWduaW5nIENBMB4XDTIwMDcyODA5MTIx
MVoXDTI1MDcyNzA5MTIxMVowgYAxCzAJBgNVBAYTAkdCMRgwFgYDVQQIDA9Ob3R0
aW5naGFtc2hpcmUxEzARBgNVBAcMCk5vdHRpbmdoYW0xDzANBgNVBAoMBlNlcnZl
cjETMBEGA1UECwwKUHJvZHVjdGlvbjEcMBoGA1UEAwwTdGVzdCBjbGllbnQgcmV2
b2tlZDCCASIwDQYJKoZIhvcNAQEBBQADggEPADCCAQoCggEBAKQiLIizT/KgsBh9
KNi0aXKgrZD5xBvB+bHg5YcCdCFtrYeH4muvggJv6GWpBPgFpZBZ3skmQaN73daR
D2tXkgRU5qF0HK84t/noyPu7/6wjWHcXOnZCpg/x3Lx2fiUbiomKWwZ2QWopXHIn
5Btox8o9VzFemp1ciMi82Oa9tb6RiOROizczE20AN7QSAtocMWEO6LUN8vTiRlXR
Ib/qksOMPRYMpOXd1uX2ObVNaWXA/r8cMyO0+JRAKEfnj1kGMXJLa1XyfarGlv8c
CCirgreZIh8cCFTRTPbyeQZ32lhjSEd/E2x/69MGHSVySwTRLh12qFb1Wby+x3ht
4h1XsvMCAwEAAaN7MHkwCQYDVR0TBAIwADAsBglghkgBhvhCAQ0EHxYdT3BlblNT
TCBHZW5lcmF0ZWQgQ2VydGlmaWNhdGUwHQYDVR0OBBYEFCFYYHqxVajK7yrSCyWD
gdvjqHx7MB8GA1UdIwQYMBaAFGOticQjExPR6wBNAQ4l414MnUHJMA0GCSqGSIb3
DQEBCwUAA4IBAQCsYBBNzBD4cV+ilCDYnozZ/BBM17W3V4sIpZdQJCc4R+k3STWS
B/zidTdNPLQkLGLab0CKVdajv++gkI1O7lHHWjDMNp+Mcsc2TMSWzr/f6VhaVGO+
5ZwnY+ZVTi8J3xCyfELr8YZm8gfKs+XKFFg0rKxOmeQ3x7GMViOaXKj+F3fszsh3
JTW3mByQJbz8WkuFsJZVysuDvKEqGvHLc+GNS2XKhh9DpfFKhtJQgcPB5sbtFQ8B
LFhjRE4XwFnRz8jLN5ye3OGDEJCeNZ1DI/K5HZEAM7Trap1aHOC4a/DcBa4V80J/
DJq9BiV1eVPqqJv1TJZSGoWRpWgIpfQyyp1Y
-----END CERTIFICATE-----
