Certificate:
    Data:
        Version: 3 (0x2)
        Serial Number: 1 (0x1)
        Signature Algorithm: sha256WithRSAEncryption
        Issuer: C=GB, ST=Derbyshire, L=Derby, O=Paho Project, OU=Testing, CN=Root CA
        Validity
            Not Before: Jul 28 09:12:10 2020 GMT
            Not After : Jul 27 09:12:10 2025 GMT
        Subject: C=GB, ST=Derbyshire, O=Paho Project, OU=Testing, CN=Signing CA
        Subject Public Key Info:
            Public Key Algorithm: rsaEncryption
                RSA Public-Key: (2048 bit)
                Modulus:
                    00:c2:33:17:27:8f:e6:b3:b3:96:d8:fc:cc:11:8d:
                    5e:da:3d:a5:8e:3a:14:c7:e6:38:80:25:e6:27:c4:
                    cf:6f:3c:b8:18:4a:6e:53:ee:81:dc:c6:e2:4a:29:
                    18:d9:d3:d8:45:3f:19:2c:01:b5:61:ce:b9:f1:89:
                    9b:0b:0c:af:f2:38:05:2e:cf:e4:57:c5:9f:4f:fc:
                    42:a1:2f:cc:2a:59:fa:1a:4a:24:24:55:60:d3:25:
                    d5:a7:0f:d8:5d:f3:9a:dc:d8:13:8c:37:ae:8d:27:
                    bb:d2:2c:37:34:3e:11:16:02:46:03:b2:48:24:de:
                    5e:d0:65:63:cd:0d:af:58:48:13:dc:93:d0:52:84:
                    fa:05:69:4c:09:69:da:00:c2:af:8a:00:4c:1c:c2:
                    1c:f5:8b:a9:f4:30:13:33:50:fd:6a:1e:8a:10:8d:
                    cd:01:11:1b:cf:a3:30:80:4b:96:a3:b6:e1:ed:df:
                    6e:69:5f:26:ed:75:9e:04:3f:49:cd:c9:6f:4a:05:
                    6f:6d:45:09:09:a8:34:03:97:f2:77:ae:8e:96:7f:
                    a8:52:7b:20:71:35:2d:11:17:52:cd:b1:b1:93:26:
                    2f:9a:17:c1:48:3e:15:99:85:db:c6:bd:c3:35:0f:
                    fd:d1:d9:2a:63:2b:96:59:35:93:c1:cf:5c:e1:72:
                    3c:73
                Exponent: 65537 (0x10001)
        X509v3 extensions:
            X509v3 Subject Key Identifier: 
                63:AD:89:C4:23:13:13:D1:EB:00:4D:01:0E:25:E3:5E:0C:9D:41:C9
            X509v3 Authority Key Identifier: 
                keyid:C7:BD:C0:22:65:FF:A7:97:A7:CB:9D:7E:44:E5:13:77:39:7D:BE:BA

            X509v3 Basic Constraints: 
                CA:TRUE
    Signature Algorithm: sha256WithRSAEncryption
         18:5c:f3:6a:e2:82:d1:ba:ee:de:00:29:4e:b3:f7:87:46:1b:
         fa:7e:52:9d:87:d8:73:19:5b:38:7a:af:31:aa:4c:bd:fe:45:
         95:25:03:48:15:d7:e5:38:4f:e3:39:93:99:10:b4:06:dc:5a:
         87:af:22:b5:2f:82:da:ef:6c:b5:f3:9c:82:71:0f:f4:d0:65:
         46:b7:23:b1:7d:51:8d:d7:7c:80:12:39:99:46:2b:d4:db:c7:
         42:96:1a:b6:0f:b3:10:9e:ad:84:0e:87:38:e8:34:f8:04:3d:
         a2:fc:3d:24:1e:09:d6:63:52:82:e4:35:ae:39:5e:f9:82:a7:
         ac:23:87:0e:fb:2d:ae:08:da:2a:3f:51:ee:f6:85:3a:43:80:
         b0:f1:96:0c:fa:10:80:18:7b:75:14:70:09:48:fc:0c:38:ee:
         ab:e4:32:7d:80:77:a8:2a:63:15:c9:11:b7:a9:0c:77:7d:be:
         d6:a3:48:37:1e:56:33:13:71:e1:12:90:ce:95:72:68:ae:d5:
         01:82:00:67:1b:ae:9d:93:5b:5d:c1:3d:6e:30:e5:e1:35:ac:
         59:3b:eb:ef:ee:83:0b:eb:e5:ea:9c:62:29:8c:73:a3:b5:45:
         45:e8:53:ea:b8:48:16:7e:f8:c5:af:4b:89:b5:1b:94:a5:85:
         d9:d5:f4:13
-----BEGIN CERTIFICATE-----
MIIDmDCCAoCgAwIBAgIBATANBgkqhkiG9w0BAQsFADBtMQswCQYDVQQGEwJHQjET
MBEGA1UECAwKRGVyYnlzaGlyZTEOMAwGA1UEBwwFRGVyYnkxFTATBgNVBAoMDFBh
aG8gUHJvamVjdDEQMA4GA1UECwwHVGVzdGluZzEQMA4GA1UEAwwHUm9vdCBDQTAe
Fw0yMDA3MjgwOTEyMTBaFw0yNTA3MjcwOTEyMTBaMGAxCzAJBgNVBAYTAkdCMRMw
EQYDVQQIDApEZXJieXNoaXJlMRUwEwYDVQQKDAxQYWhvIFByb2plY3QxEDAOBgNV
BAsMB1Rlc3RpbmcxEzARBgNVBAMMClNpZ25pbmcgQ0EwggEiMA0GCSqGSIb3DQEB
AQUAA4IBDwAwggEKAoIBAQDCMxcnj+azs5bY/MwRjV7aPaWOOhTH5jiAJeYnxM9v
PLgYSm5T7oHcxuJKKRjZ09hFPxksAbVhzrnxiZsLDK/yOAUuz+RXxZ9P/EKhL8wq
WfoaSiQkVWDTJdWnD9hd85rc2BOMN66NJ7vSLDc0PhEWAkYDskgk3l7QZWPNDa9Y
SBPck9BShPoFaUwJadoAwq+KAEwcwhz1i6n0MBMzUP1qHooQjc0BERvPozCAS5aj
tuHt325pXybtdZ4EP0nNyW9KBW9tRQkJqDQDl/J3ro6Wf6hSeyBxNS0RF1LNsbGT
Ji+aF8FIPhWZhdvGvcM1D/3R2SpjK5ZZNZPBz1zhcjxzAgMBAAGjUDBOMB0GA1Ud
DgQWBBRjrYnEIxMT0esATQEOJeNeDJ1ByTAfBgNVHSMEGDAWgBTHvcAiZf+nl6fL
nX5E5RN3OX2+ujAMBgNVHRMEBTADAQH/MA0GCSqGSIb3DQEBCwUAA4IBAQAYXPNq
4oLRuu7eAClOs/eHRhv6flKdh9hzGVs4eq8xqky9/kWVJQNIFdflOE/jOZOZELQG
3FqHryK1L4La72y185yCcQ/00GVGtyOxfVGN13yAEjmZRivU28dClhq2D7MQnq2E
Doc46DT4BD2i/D0kHgnWY1KC5DWuOV75gqesI4cO+y2uCNoqP1Hu9oU6Q4Cw8ZYM
+hCAGHt1FHAJSPwMOO6r5DJ9gHeoKmMVyRG3qQx3fb7Wo0g3HlYzE3HhEpDOlXJo
rtUBggBnG66dk1tdwT1uMOXhNaxZO+vv7oML6+XqnGIpjHOjtUVF6FPquEgWfvjF
r0uJtRuUpYXZ1fQT
-----END CERTIFICATE-----
-----BEGIN CERTIFICATE-----
MIIDuDCCAqCgAwIBAgIUfktixcRWQfrifKAqkK/KyuylnZkwDQYJKoZIhvcNAQEL
BQAwbTELMAkGA1UEBhMCR0IxEzARBgNVBAgMCkRlcmJ5c2hpcmUxDjAMBgNVBAcM
BURlcmJ5MRUwEwYDVQQKDAxQYWhvIFByb2plY3QxEDAOBgNVBAsMB1Rlc3Rpbmcx
EDAOBgNVBAMMB1Jvb3QgQ0EwHhcNMjAwNzI4MDkxMjEwWhcNMzAwNzI2MDkxMjEw
WjBtMQswCQYDVQQGEwJHQjETMBEGA1UECAwKRGVyYnlzaGlyZTEOMAwGA1UEBwwF
RGVyYnkxFTATBgNVBAoMDFBhaG8gUHJvamVjdDEQMA4GA1UECwwHVGVzdGluZzEQ
MA4GA1UEAwwHUm9vdCBDQTCCASIwDQYJKoZIhvcNAQEBBQADggEPADCCAQoCggEB
ANvaqRfpEO9TFwwB/5syttx8Zaeyq+d0z0uyQuWPIWbp1iUrwTZTb7kwG/9HdNC0
t1KSwdb4Er9B/ycT65lUETlIE3MfzCu6nI/qiIC+yhsCBtdeVALfB2esdCQ+X2Ls
jfavpsMDrbjrZ1fyFCYdK0Ka4F3YMyNYj75Bj0/DbUXsgGYL20Qe4uS2yNElQGqo
0mR21lDOhKAI0bVfrdafwfFZB5CIdx2e0kApwAQQOe3xgs3maTR5VQlIdFBApx0y
afpJBW2XD/12QWKnOhObTw4QD3OdeXldE8gXrM4qZIrr8/zM/IIsUxSSMb2FIxMU
HsMeILzvNuXjgx6fwROW5JECAwEAAaNQME4wHQYDVR0OBBYEFMe9wCJl/6eXp8ud
fkTlE3c5fb66MB8GA1UdIwQYMBaAFMe9wCJl/6eXp8udfkTlE3c5fb66MAwGA1Ud
EwQFMAMBAf8wDQYJKoZIhvcNAQELBQADggEBAIVn3TZjJNuoySnx8QJAwNPy9A+F
oxUgYsjSKoagKc5Rk1czRwNawdeATb0HugT1oVrkbv71vrhBVNWSA9gtV46x9zoD
HjxHjkd3owfOmW3VMPPqqBoKK0plmDQMEqB3j8+Pmvtjvl18BntAqWs2OyTLPqZV
0HNQ4bV1ArvwkE++8GYcuYfOU4ORxtPZFUKRc6ailf5Z9H4TEwS+BcOUZ8BaOYX5
5tyvvt7nnaF3v5fcnlX1nEvNJRwdOvo7+cLcOd4ehW8bBLiS2mEUDW/D712sSyId
Xuoms4rmP66gCC29h72fj0aL6/PXxrDaZo+7MStB5tCkJK6kP58Elk64654=
-----END CERTIFICATE-----
