Certificate:
    Data:
        Version: 3 (0x2)
        Serial Number: 3 (0x3)
    Signature Algorithm: sha256WithRSAEncryption
        Issuer: C=GB, ST=Derbyshire, O=Paho Project, OU=Testing, CN=Signing CA
        Validity
            Not Before: Aug 20 00:00:00 2012 GMT
            Not After : Aug 21 00:00:00 2012 GMT
        Subject: C=GB, ST=Nottinghamshire, L=Nottingham, O=Server, OU=Production, CN=test client expired
        Subject Public Key Info:
            Public Key Algorithm: rsaEncryption
                Public-Key: (1024 bit)
                Modulus:
                    00:e3:f4:ac:93:22:b9:53:fb:cc:5d:a7:92:df:fd:
                    41:a5:4a:a1:1d:89:a8:42:1d:d9:a9:ed:cc:2f:68:
                    b8:87:26:20:fa:c9:1e:87:54:07:17:21:94:29:b5:
                    4d:06:a2:9e:69:f1:17:db:97:c7:d5:2b:22:af:32:
                    94:46:8b:fa:f7:69:10:3f:da:a2:15:49:bc:85:c2:
                    0b:20:85:2e:0c:f1:ec:c4:c4:84:a7:fe:87:3e:ea:
                    cf:2a:93:58:b1:1f:1c:b5:a7:76:fb:a0:16:98:e0:
                    1b:eb:12:67:37:23:9d:33:6c:b4:7f:05:77:1a:82:
                    b3:b7:96:59:f6:e8:ff:90:9f
                Exponent: 65537 (0x10001)
        X509v3 extensions:
            X509v3 Basic Constraints: 
                CA:FALSE
            Netscape Comment: 
                OpenSSL Generated Certificate
            X509v3 Subject Key Identifier: 
                BC:74:19:C6:E5:E6:A1:41:59:94:55:6B:45:30:65:93:B0:6E:07:B0
            X509v3 Authority Key Identifier: 
                keyid:8E:5E:D3:57:86:1A:E3:60:50:AE:BF:77:27:55:9B:4A:38:0D:EC:5B

    Signature Algorithm: sha256WithRSAEncryption
         27:ec:3a:96:b6:3b:e2:7f:1e:bf:5b:f7:94:a3:05:83:ba:9f:
         e8:a9:78:8f:c0:86:78:15:a9:a7:4b:47:f5:3a:c0:c3:99:db:
         c9:6e:35:37:dd:5d:aa:41:36:a9:a7:85:aa:7e:5d:1c:0a:26:
         52:ac:1f:f1:3c:73:cc:53:87:86:84:02:a7:b9:42:49:aa:d4:
         7a:d8:dd:5c:4c:1f:df:ac:22:2f:70:c2:8f:ba:53:9c:3c:47:
         bf:49:b6:07:71:1e:fd:27:df:89:74:95:fd:8f:14:d1:8d:1b:
         11:c8:13:dd:56:c7:aa:9e:9b:e4:77:d4:84:53:25:9c:79:11:
         1f:f0
-----BEGIN CERTIFICATE-----
MIIC0jCCAjugAwIBAgIBAzANBgkqhkiG9w0BAQsFADBgMQswCQYDVQQGEwJHQjET
MBEGA1UECAwKRGVyYnlzaGlyZTEVMBMGA1UECgwMUGFobyBQcm9qZWN0MRAwDgYD
VQQLDAdUZXN0aW5nMRMwEQYDVQQDDApTaWduaW5nIENBMB4XDTEyMDgyMDAwMDAw
MFoXDTEyMDgyMTAwMDAwMFowgYAxCzAJBgNVBAYTAkdCMRgwFgYDVQQIDA9Ob3R0
aW5naGFtc2hpcmUxEzARBgNVBAcMCk5vdHRpbmdoYW0xDzANBgNVBAoMBlNlcnZl
cjETMBEGA1UECwwKUHJvZHVjdGlvbjEcMBoGA1UEAwwTdGVzdCBjbGllbnQgZXhw
aXJlZDCBnzANBgkqhkiG9w0BAQEFAAOBjQAwgYkCgYEA4/SskyK5U/vMXaeS3/1B
pUqhHYmoQh3Zqe3ML2i4hyYg+skeh1QHFyGUKbVNBqKeafEX25fH1SsirzKURov6
92kQP9qiFUm8hcILIIUuDPHsxMSEp/6HPurPKpNYsR8ctad2+6AWmOAb6xJnNyOd
M2y0fwV3GoKzt5ZZ9uj/kJ8CAwEAAaN7MHkwCQYDVR0TBAIwADAsBglghkgBhvhC
AQ0EHxYdT3BlblNTTCBHZW5lcmF0ZWQgQ2VydGlmaWNhdGUwHQYDVR0OBBYEFLx0
Gcbl5qFBWZRVa0UwZZOwbgewMB8GA1UdIwQYMBaAFI5e01eGGuNgUK6/dydVm0o4
DexbMA0GCSqGSIb3DQEBCwUAA4GBACfsOpa2O+J/Hr9b95SjBYO6n+ipeI/AhngV
qadLR/U6wMOZ28luNTfdXapBNqmnhap+XRwKJlKsH/E8c8xTh4aEAqe5Qkmq1HrY
3VxMH9+sIi9wwo+6U5w8R79JtgdxHv0n34l0lf2PFNGNGxHIE91Wx6qem+R31IRT
JZx5ER/w
-----END CERTIFICATE-----
