Certificate:
    Data:
        Version: 3 (0x2)
        Serial Number: 2 (0x2)
    Signature Algorithm: sha256WithRSAEncryption
        Issuer: C=GB, ST=Derbyshire, O=Paho Project, OU=Testing, CN=Signing CA
        Validity
            Not Before: Aug  1 19:40:53 2018 GMT
            Not After : Jul 31 19:40:53 2023 GMT
        Subject: C=GB, ST=Nottinghamshire, L=Nottingham, O=Server, OU=Production, CN=test client
        Subject Public Key Info:
            Public Key Algorithm: rsaEncryption
                Public-Key: (1024 bit)
                Modulus:
                    00:e3:f4:ac:93:22:b9:53:fb:cc:5d:a7:92:df:fd:
                    41:a5:4a:a1:1d:89:a8:42:1d:d9:a9:ed:cc:2f:68:
                    b8:87:26:20:fa:c9:1e:87:54:07:17:21:94:29:b5:
                    4d:06:a2:9e:69:f1:17:db:97:c7:d5:2b:22:af:32:
                    94:46:8b:fa:f7:69:10:3f:da:a2:15:49:bc:85:c2:
                    0b:20:85:2e:0c:f1:ec:c4:c4:84:a7:fe:87:3e:ea:
                    cf:2a:93:58:b1:1f:1c:b5:a7:76:fb:a0:16:98:e0:
                    1b:eb:12:67:37:23:9d:33:6c:b4:7f:05:77:1a:82:
                    b3:b7:96:59:f6:e8:ff:90:9f
                Exponent: 65537 (0x10001)
        X509v3 extensions:
            X509v3 Basic Constraints: 
                CA:FALSE
            Netscape Comment: 
                OpenSSL Generated Certificate
            X509v3 Subject Key Identifier: 
                BC:74:19:C6:E5:E6:A1:41:59:94:55:6B:45:30:65:93:B0:6E:07:B0
            X509v3 Authority Key Identifier: 
                keyid:8E:5E:D3:57:86:1A:E3:60:50:AE:BF:77:27:55:9B:4A:38:0D:EC:5B

    Signature Algorithm: sha256WithRSAEncryption
         64:92:7c:49:a7:f3:c6:cb:17:52:fc:b7:4d:2a:63:0b:89:f9:
         fa:b4:d2:15:7e:05:28:60:cc:e6:c0:6d:7a:29:6e:99:b6:75:
         cb:7a:29:9d:62:57:42:e5:4b:fa:9c:1c:ff:0d:47:a5:e0:74:
         f8:14:6b:dc:e0:28:72:51:87:2a:02:13:cf:e6:5c:5f:0e:9f:
         59:c1:67:1a:5d:4e:2e:ac:74:03:87:4f:9e:c5:be:af:5a:4b:
         05:da:61:7e:6c:34:b9:31:57:3a:df:a8:8f:33:c6:2d:fb:d5:
         0c:39:61:f2:7a:a6:22:90:c9:b4:40:33:ec:8c:2a:49:2c:e7:
         40:02
-----BEGIN CERTIFICATE-----
MIICyTCCAjKgAwIBAgIBAjANBgkqhkiG9w0BAQsFADBgMQswCQYDVQQGEwJHQjET
MBEGA1UECAwKRGVyYnlzaGlyZTEVMBMGA1UECgwMUGFobyBQcm9qZWN0MRAwDgYD
VQQLDAdUZXN0aW5nMRMwEQYDVQQDDApTaWduaW5nIENBMB4XDTE4MDgwMTE5NDA1
M1oXDTIzMDczMTE5NDA1M1oweDELMAkGA1UEBhMCR0IxGDAWBgNVBAgMD05vdHRp
bmdoYW1zaGlyZTETMBEGA1UEBwwKTm90dGluZ2hhbTEPMA0GA1UECgwGU2VydmVy
MRMwEQYDVQQLDApQcm9kdWN0aW9uMRQwEgYDVQQDDAt0ZXN0IGNsaWVudDCBnzAN
BgkqhkiG9w0BAQEFAAOBjQAwgYkCgYEA4/SskyK5U/vMXaeS3/1BpUqhHYmoQh3Z
qe3ML2i4hyYg+skeh1QHFyGUKbVNBqKeafEX25fH1SsirzKURov692kQP9qiFUm8
hcILIIUuDPHsxMSEp/6HPurPKpNYsR8ctad2+6AWmOAb6xJnNyOdM2y0fwV3GoKz
t5ZZ9uj/kJ8CAwEAAaN7MHkwCQYDVR0TBAIwADAsBglghkgBhvhCAQ0EHxYdT3Bl
blNTTCBHZW5lcmF0ZWQgQ2VydGlmaWNhdGUwHQYDVR0OBBYEFLx0Gcbl5qFBWZRV
a0UwZZOwbgewMB8GA1UdIwQYMBaAFI5e01eGGuNgUK6/dydVm0o4DexbMA0GCSqG
SIb3DQEBCwUAA4GBAGSSfEmn88bLF1L8t00qYwuJ+fq00hV+BShgzObAbXopbpm2
dct6KZ1iV0LlS/qcHP8NR6XgdPgUa9zgKHJRhyoCE8/mXF8On1nBZxpdTi6sdAOH
T57Fvq9aSwXaYX5sNLkxVzrfqI8zxi371Qw5YfJ6piKQybRAM+yMKkks50AC
-----END CERTIFICATE-----
