Certificate:
    Data:
        Version: 3 (0x2)
        Serial Number: 2 (0x2)
        Signature Algorithm: sha256WithRSAEncryption
        Issuer: C=GB, ST=Derbyshire, O=Paho Project, OU=Testing, CN=Signing CA
        Validity
            Not Before: Jul  7 11:14:42 2021 GMT
            Not After : Jul  6 11:14:42 2026 GMT
        Subject: C=GB, ST=Nottinghamshire, L=Nottingham, O=Server, OU=Production, CN=test client
        Subject Public Key Info:
            Public Key Algorithm: rsaEncryption
                RSA Public-Key: (2048 bit)
                Modulus:
                    00:d0:58:ed:ad:44:b4:f8:30:16:27:d9:b4:2c:b4:
                    24:67:9a:19:fe:32:04:0d:9a:7e:75:97:12:d6:2c:
                    d4:97:33:fb:30:8c:ef:a2:b1:ef:e5:92:d6:56:05:
                    75:c8:19:82:92:4e:4b:13:8e:25:90:b9:21:72:f4:
                    a4:bf:7a:e2:0f:75:52:08:04:4c:e8:6a:35:7e:7d:
                    78:d9:b8:f7:2b:3d:8e:4e:b5:f3:7a:9a:06:10:50:
                    ca:95:63:2c:bd:3a:89:d0:8a:84:12:32:9b:00:a7:
                    25:33:70:d2:18:0a:43:94:12:62:e7:77:db:b8:0f:
                    dc:23:48:95:5c:77:c6:11:4f:0f:d6:6e:73:59:7c:
                    ed:6a:fd:ba:24:f0:b2:59:c3:a2:16:65:ad:19:7f:
                    92:87:8c:ea:b5:e5:0f:26:f8:b1:74:98:c3:fd:ed:
                    4d:74:d0:58:ce:d9:9c:24:34:9b:75:79:25:d0:aa:
                    6c:03:03:0c:3a:4a:4c:9a:36:50:ab:55:74:1e:8b:
                    de:41:a7:14:b9:57:ee:8b:31:90:5c:00:af:31:9d:
                    e0:55:07:8d:05:ed:c9:5f:e1:79:b7:96:be:d9:5b:
                    cf:a7:5c:cd:48:fc:bd:a4:34:bf:e0:49:d5:25:60:
                    7a:4c:32:37:97:e4:f8:64:24:a6:79:c1:62:8d:93:
                    52:53
                Exponent: 65537 (0x10001)
        X509v3 extensions:
            X509v3 Basic Constraints: 
                CA:FALSE
            Netscape Comment: 
                OpenSSL Generated Certificate
            X509v3 Subject Key Identifier: 
                61:62:90:E6:BB:8A:BB:06:6C:8A:66:9F:A5:C7:85:12:43:5C:94:6F
            X509v3 Authority Key Identifier: 
                keyid:C2:8F:09:9B:D5:F1:BA:C4:74:5E:97:50:BB:86:9D:A1:F1:FA:C4:36

    Signature Algorithm: sha256WithRSAEncryption
         a4:ad:a8:cf:8b:f1:c0:e5:ed:e0:9f:eb:b8:46:17:fe:cf:49:
         ed:e2:94:3b:3c:ea:4d:8b:e5:e3:5b:5f:f0:51:f0:53:88:22:
         61:fc:f9:9d:c3:67:5f:9c:20:f3:2c:bb:65:c3:66:d9:15:b8:
         60:82:31:95:d4:96:43:11:c1:56:da:4b:ad:bc:3f:b2:5f:3d:
         40:8d:e4:22:26:9b:d5:5d:ff:02:55:c1:f9:ca:f3:67:46:be:
         7d:d0:8c:68:40:a6:64:01:f0:ce:8e:2c:c2:6c:16:96:23:64:
         e6:2f:95:b9:95:a2:85:8e:ec:61:56:6f:b9:3a:87:e9:cc:f1:
         94:ca:51:d4:ce:50:01:91:1a:8c:ff:f9:cf:30:d4:aa:53:44:
         67:44:84:4c:07:a7:ab:c3:34:3a:16:69:8c:37:7f:a0:fb:e1:
         fa:ec:e6:9d:3c:fd:13:a9:6f:b2:d8:dc:46:81:ae:a6:63:4f:
         80:47:a7:80:51:a7:d4:d6:c8:11:85:7d:5f:ab:ef:3a:93:62:
         d7:fb:c2:a9:e4:b9:40:7e:d1:59:d0:d4:ff:75:bf:70:72:a2:
         93:a3:47:41:d8:cf:d5:c6:8c:90:b8:d3:01:d8:53:a6:c1:3c:
         a9:d9:e4:ef:15:e9:47:9c:9d:eb:5a:bb:11:df:da:f1:81:5d:
         89:c9:4a:8f
-----BEGIN CERTIFICATE-----
MIIDzjCCAragAwIBAgIBAjANBgkqhkiG9w0BAQsFADBgMQswCQYDVQQGEwJHQjET
MBEGA1UECAwKRGVyYnlzaGlyZTEVMBMGA1UECgwMUGFobyBQcm9qZWN0MRAwDgYD
VQQLDAdUZXN0aW5nMRMwEQYDVQQDDApTaWduaW5nIENBMB4XDTIxMDcwNzExMTQ0
MloXDTI2MDcwNjExMTQ0MloweDELMAkGA1UEBhMCR0IxGDAWBgNVBAgMD05vdHRp
bmdoYW1zaGlyZTETMBEGA1UEBwwKTm90dGluZ2hhbTEPMA0GA1UECgwGU2VydmVy
MRMwEQYDVQQLDApQcm9kdWN0aW9uMRQwEgYDVQQDDAt0ZXN0IGNsaWVudDCCASIw
DQYJKoZIhvcNAQEBBQADggEPADCCAQoCggEBANBY7a1EtPgwFifZtCy0JGeaGf4y
BA2afnWXEtYs1Jcz+zCM76Kx7+WS1lYFdcgZgpJOSxOOJZC5IXL0pL964g91UggE
TOhqNX59eNm49ys9jk6183qaBhBQypVjLL06idCKhBIymwCnJTNw0hgKQ5QSYud3
27gP3CNIlVx3xhFPD9Zuc1l87Wr9uiTwslnDohZlrRl/koeM6rXlDyb4sXSYw/3t
TXTQWM7ZnCQ0m3V5JdCqbAMDDDpKTJo2UKtVdB6L3kGnFLlX7osxkFwArzGd4FUH
jQXtyV/hebeWvtlbz6dczUj8vaQ0v+BJ1SVgekwyN5fk+GQkpnnBYo2TUlMCAwEA
AaN7MHkwCQYDVR0TBAIwADAsBglghkgBhvhCAQ0EHxYdT3BlblNTTCBHZW5lcmF0
ZWQgQ2VydGlmaWNhdGUwHQYDVR0OBBYEFGFikOa7irsGbIpmn6XHhRJDXJRvMB8G
A1UdIwQYMBaAFMKPCZvV8brEdF6XULuGnaHx+sQ2MA0GCSqGSIb3DQEBCwUAA4IB
AQCkrajPi/HA5e3gn+u4Rhf+z0nt4pQ7POpNi+XjW1/wUfBTiCJh/Pmdw2dfnCDz
LLtlw2bZFbhggjGV1JZDEcFW2kutvD+yXz1AjeQiJpvVXf8CVcH5yvNnRr590Ixo
QKZkAfDOjizCbBaWI2TmL5W5laKFjuxhVm+5OofpzPGUylHUzlABkRqM//nPMNSq
U0RnRIRMB6erwzQ6FmmMN3+g++H67OadPP0TqW+y2NxGga6mY0+AR6eAUafU1sgR
hX1fq+86k2LX+8Kp5LlAftFZ0NT/db9wcqKTo0dB2M/VxoyQuNMB2FOmwTyp2eTv
FelHnJ3rWrsR39rxgV2JyUqP
-----END CERTIFICATE-----
