Certificate:
    Data:
        Version: 3 (0x2)
        Serial Number: 5 (0x5)
        Signature Algorithm: sha256WithRSAEncryption
        Issuer: C=GB, ST=Derbyshire, O=Paho Project, OU=Testing, CN=Signing CA
        Validity
            Not Before: Jul  7 11:14:43 2021 GMT
            Not After : Jul  6 11:14:43 2026 GMT
        Subject: C=GB, ST=Nottinghamshire, L=Nottingham, O=Server, OU=Production, CN=test client revoked
        Subject Public Key Info:
            Public Key Algorithm: rsaEncryption
                RSA Public-Key: (2048 bit)
                Modulus:
                    00:a5:7a:5f:a2:55:1f:50:22:cd:92:0d:9a:69:fa:
                    47:d4:d1:2f:6f:e5:3e:22:06:2f:f4:ed:a8:85:9b:
                    2a:0d:e7:e2:81:f4:23:08:68:e2:75:5b:ba:58:f5:
                    57:61:5a:5c:c4:e5:27:5e:9c:8e:82:77:72:25:c2:
                    2e:1d:e0:61:dc:32:f0:3b:be:7d:26:e3:a0:bb:5d:
                    75:7f:87:d8:a1:26:2f:7f:01:7b:1e:2f:25:cb:bd:
                    15:6c:43:12:6a:a6:02:1d:fd:7b:34:e2:1e:6c:06:
                    13:de:39:e8:ee:ae:ed:cd:cc:bd:1e:48:d5:e6:11:
                    95:12:08:61:88:13:d6:88:40:cc:9d:18:1c:c6:30:
                    5e:8f:e8:a4:2a:c8:62:78:19:f6:95:6a:f0:ce:27:
                    e3:af:aa:fd:46:41:9d:83:32:f6:8e:a4:1f:32:00:
                    c3:ca:5f:a5:3e:bc:74:6e:96:3e:50:cd:12:ca:81:
                    5a:ab:cf:a1:f8:3a:2f:fe:91:73:79:14:b3:fb:e6:
                    6b:c3:57:a9:8c:2d:f6:6c:53:4f:2e:e9:4c:25:67:
                    88:ac:ce:bc:84:ac:b8:d8:f5:6a:a4:ae:24:10:ea:
                    4e:2c:ef:90:f5:a6:68:c3:5c:a7:e0:40:99:06:6a:
                    ec:b1:63:f5:7a:0b:a9:f1:81:26:95:12:9c:02:20:
                    77:df
                Exponent: 65537 (0x10001)
        X509v3 extensions:
            X509v3 Basic Constraints: 
                CA:FALSE
            Netscape Comment: 
                OpenSSL Generated Certificate
            X509v3 Subject Key Identifier: 
                C7:6A:63:58:7D:DB:19:38:77:1F:41:E8:67:38:78:9D:0B:BE:51:92
            X509v3 Authority Key Identifier: 
                keyid:C2:8F:09:9B:D5:F1:BA:C4:74:5E:97:50:BB:86:9D:A1:F1:FA:C4:36

    Signature Algorithm: sha256WithRSAEncryption
         5c:b9:89:ad:18:b6:0b:93:f1:b0:0a:3e:aa:f3:d0:ad:d1:6f:
         04:31:29:5a:b8:74:81:3c:4b:bb:98:8a:ca:c8:95:fa:8f:3e:
         89:ba:f2:c3:83:a2:18:1c:7c:c6:56:4b:52:83:ef:fe:87:23:
         7f:2d:6f:a2:36:22:46:04:ed:bf:ad:34:e6:9d:87:7e:92:72:
         80:b2:5d:b1:b3:23:f6:f2:bd:74:c5:34:ef:8f:50:89:8b:64:
         77:95:9d:ec:72:09:a6:c4:74:da:1d:2a:57:60:38:8f:6c:22:
         ff:9e:40:73:98:ac:1f:bc:b6:e4:1b:1d:2d:73:a2:9a:ad:53:
         95:d2:17:b3:c5:8a:6c:5a:5a:be:e2:80:e4:f5:d6:99:06:61:
         ec:66:44:1a:ec:ac:86:36:ef:84:4b:c5:b3:a0:c5:d7:0d:be:
         51:8c:95:46:03:e4:74:61:bf:7c:10:68:91:12:46:b8:38:94:
         9f:a2:68:77:4d:92:57:43:ff:a1:c2:67:43:33:01:1d:fd:29:
         13:8d:04:ed:7e:2d:4c:ed:8c:2f:f6:6f:44:33:3c:71:4d:f6:
         51:04:c5:c0:cb:2c:ea:95:6e:22:32:03:37:0b:32:87:89:c0:
         e5:bc:72:d2:8f:73:db:40:a9:4d:f2:15:bd:c4:0d:aa:ea:2e:
         0c:ce:77:9d
-----BEGIN CERTIFICATE-----
MIID1zCCAr+gAwIBAgIBBTANBgkqhkiG9w0BAQsFADBgMQswCQYDVQQGEwJHQjET
MBEGA1UECAwKRGVyYnlzaGlyZTEVMBMGA1UECgwMUGFobyBQcm9qZWN0MRAwDgYD
VQQLDAdUZXN0aW5nMRMwEQYDVQQDDApTaWduaW5nIENBMB4XDTIxMDcwNzExMTQ0
M1oXDTI2MDcwNjExMTQ0M1owgYAxCzAJBgNVBAYTAkdCMRgwFgYDVQQIDA9Ob3R0
aW5naGFtc2hpcmUxEzARBgNVBAcMCk5vdHRpbmdoYW0xDzANBgNVBAoMBlNlcnZl
cjETMBEGA1UECwwKUHJvZHVjdGlvbjEcMBoGA1UEAwwTdGVzdCBjbGllbnQgcmV2
b2tlZDCCASIwDQYJKoZIhvcNAQEBBQADggEPADCCAQoCggEBAKV6X6JVH1AizZIN
mmn6R9TRL2/lPiIGL/TtqIWbKg3n4oH0Iwho4nVbulj1V2FaXMTlJ16cjoJ3ciXC
Lh3gYdwy8Du+fSbjoLtddX+H2KEmL38Bex4vJcu9FWxDEmqmAh39ezTiHmwGE945
6O6u7c3MvR5I1eYRlRIIYYgT1ohAzJ0YHMYwXo/opCrIYngZ9pVq8M4n46+q/UZB
nYMy9o6kHzIAw8pfpT68dG6WPlDNEsqBWqvPofg6L/6Rc3kUs/vma8NXqYwt9mxT
Ty7pTCVniKzOvISsuNj1aqSuJBDqTizvkPWmaMNcp+BAmQZq7LFj9XoLqfGBJpUS
nAIgd98CAwEAAaN7MHkwCQYDVR0TBAIwADAsBglghkgBhvhCAQ0EHxYdT3BlblNT
TCBHZW5lcmF0ZWQgQ2VydGlmaWNhdGUwHQYDVR0OBBYEFMdqY1h92xk4dx9B6Gc4
eJ0LvlGSMB8GA1UdIwQYMBaAFMKPCZvV8brEdF6XULuGnaHx+sQ2MA0GCSqGSIb3
DQEBCwUAA4IBAQBcuYmtGLYLk/GwCj6q89Ct0W8EMSlauHSBPEu7mIrKyJX6jz6J
uvLDg6IYHHzGVktSg+/+hyN/LW+iNiJGBO2/rTTmnYd+knKAsl2xsyP28r10xTTv
j1CJi2R3lZ3scgmmxHTaHSpXYDiPbCL/nkBzmKwfvLbkGx0tc6KarVOV0hezxYps
Wlq+4oDk9daZBmHsZkQa7KyGNu+ES8WzoMXXDb5RjJVGA+R0Yb98EGiREka4OJSf
omh3TZJXQ/+hwmdDMwEd/SkTjQTtfi1M7Ywv9m9EMzxxTfZRBMXAyyzqlW4iMgM3
CzKHicDlvHLSj3PbQKlN8hW9xA2q6i4Mzned
-----END CERTIFICATE-----
