Certificate:
    Data:
        Version: 3 (0x2)
        Serial Number: 1 (0x1)
        Signature Algorithm: sha256WithRSAEncryption
        Issuer: C=GB, ST=Derbyshire, O=Paho Project, OU=Testing, CN=Signing CA
        Validity
            Not Before: Jul 28 09:12:10 2020 GMT
            Not After : Jul 27 09:12:10 2025 GMT
        Subject: C=GB, ST=Nottinghamshire, L=Nottingham, O=Server, OU=Production, CN=localhost
        Subject Public Key Info:
            Public Key Algorithm: rsaEncryption
                RSA Public-Key: (2048 bit)
                Modulus:
                    00:f8:5a:e9:fb:cc:aa:7f:8a:71:10:31:34:09:93:
                    9a:bb:d9:da:2d:02:46:3e:1a:ed:ee:5a:3b:e8:1d:
                    ed:3d:55:f8:bc:c5:0b:f4:77:3d:ae:4e:4a:83:a0:
                    23:90:15:ef:99:5e:8e:fa:08:ce:04:82:71:75:02:
                    54:51:72:ab:02:ea:06:07:7a:60:8d:7b:9c:54:53:
                    24:b6:26:89:2b:c6:fa:fc:89:da:20:95:4c:92:e8:
                    99:45:ea:d5:ba:42:62:11:05:88:94:79:0f:fe:68:
                    12:b3:b0:5c:ea:39:0d:6f:cf:e2:12:16:cf:e0:5d:
                    37:69:fd:8c:ab:51:ac:a8:97:bb:be:5c:29:17:eb:
                    ee:4d:43:2e:24:cb:af:84:e4:96:36:33:3e:9a:45:
                    54:25:77:ef:ed:76:4b:5e:6a:1b:35:83:09:54:f1:
                    d1:b0:59:32:c4:64:bb:50:8f:43:e2:dd:15:c6:c4:
                    b8:f2:12:9b:fb:86:48:9c:21:d4:bd:da:26:71:8e:
                    ed:3f:9a:27:15:04:c2:2c:2c:4a:bf:21:fe:6d:35:
                    40:cb:78:41:e2:cd:d4:39:bf:9a:1a:43:c1:d2:9e:
                    a9:44:24:e4:dd:ef:9d:5b:6c:d5:44:5c:32:2f:4f:
                    41:9f:0f:27:3d:55:91:96:ca:22:1b:d6:18:f9:63:
                    a1:61
                Exponent: 65537 (0x10001)
        X509v3 extensions:
            X509v3 Basic Constraints: 
                CA:FALSE
            Netscape Comment: 
                OpenSSL Generated Certificate
            X509v3 Subject Key Identifier: 
                8F:E3:5C:A3:F0:4A:C3:1C:62:92:0A:83:37:BD:E8:B9:B6:91:22:E4
            X509v3 Authority Key Identifier: 
                keyid:63:AD:89:C4:23:13:13:D1:EB:00:4D:01:0E:25:E3:5E:0C:9D:41:C9

    Signature Algorithm: sha256WithRSAEncryption
         b4:32:28:0f:3f:ba:4d:97:0c:0d:8a:7e:cc:dd:cc:99:a4:50:
         62:91:f5:21:e0:48:8f:a3:bb:90:5d:99:28:27:68:83:da:07:
         60:cd:f2:b7:eb:81:91:4b:43:7b:44:c5:7f:3f:3f:f9:dc:11:
         3e:8c:ba:bd:13:73:f8:81:8f:4d:3c:4a:4a:a7:13:fc:7d:c3:
         33:a2:4f:8e:39:43:f9:7c:ec:59:ad:54:47:e3:08:a3:7b:bd:
         e5:ca:00:b0:5b:ce:3d:f6:0d:a7:35:25:9e:a3:50:17:92:2c:
         12:ae:d1:85:17:bc:09:b2:5c:06:a6:24:ad:2f:d0:57:5b:0d:
         83:b5:c8:f7:c0:f9:31:d1:0c:1b:70:c4:a7:91:86:40:f7:76:
         a0:a1:72:7f:d2:a3:c4:ff:67:a8:8a:e2:e9:82:19:a1:93:25:
         27:cb:66:12:78:d7:f0:a0:69:3e:42:77:94:f4:15:a9:48:d0:
         73:fc:e8:53:61:87:cb:95:de:73:bf:2a:ba:fc:32:74:ab:ba:
         bf:21:45:85:56:ab:56:cb:51:58:fc:c6:49:a9:39:db:f3:76:
         2a:18:be:c6:0a:d6:5c:09:5c:1e:1f:d7:41:4c:34:f1:59:ce:
         7d:c9:fd:82:65:a5:ae:46:34:f7:13:c1:cf:a3:0e:32:c0:fc:
         0f:77:99:f9
-----BEGIN CERTIFICATE-----
MIIDzDCCArSgAwIBAgIBATANBgkqhkiG9w0BAQsFADBgMQswCQYDVQQGEwJHQjET
MBEGA1UECAwKRGVyYnlzaGlyZTEVMBMGA1UECgwMUGFobyBQcm9qZWN0MRAwDgYD
VQQLDAdUZXN0aW5nMRMwEQYDVQQDDApTaWduaW5nIENBMB4XDTIwMDcyODA5MTIx
MFoXDTI1MDcyNzA5MTIxMFowdjELMAkGA1UEBhMCR0IxGDAWBgNVBAgMD05vdHRp
bmdoYW1zaGlyZTETMBEGA1UEBwwKTm90dGluZ2hhbTEPMA0GA1UECgwGU2VydmVy
MRMwEQYDVQQLDApQcm9kdWN0aW9uMRIwEAYDVQQDDAlsb2NhbGhvc3QwggEiMA0G
CSqGSIb3DQEBAQUAA4IBDwAwggEKAoIBAQD4Wun7zKp/inEQMTQJk5q72dotAkY+
Gu3uWjvoHe09Vfi8xQv0dz2uTkqDoCOQFe+ZXo76CM4EgnF1AlRRcqsC6gYHemCN
e5xUUyS2Jokrxvr8idoglUyS6JlF6tW6QmIRBYiUeQ/+aBKzsFzqOQ1vz+ISFs/g
XTdp/YyrUayol7u+XCkX6+5NQy4ky6+E5JY2Mz6aRVQld+/tdkteahs1gwlU8dGw
WTLEZLtQj0Pi3RXGxLjyEpv7hkicIdS92iZxju0/micVBMIsLEq/If5tNUDLeEHi
zdQ5v5oaQ8HSnqlEJOTd751bbNVEXDIvT0GfDyc9VZGWyiIb1hj5Y6FhAgMBAAGj
ezB5MAkGA1UdEwQCMAAwLAYJYIZIAYb4QgENBB8WHU9wZW5TU0wgR2VuZXJhdGVk
IENlcnRpZmljYXRlMB0GA1UdDgQWBBSP41yj8ErDHGKSCoM3vei5tpEi5DAfBgNV
HSMEGDAWgBRjrYnEIxMT0esATQEOJeNeDJ1ByTANBgkqhkiG9w0BAQsFAAOCAQEA
tDIoDz+6TZcMDYp+zN3MmaRQYpH1IeBIj6O7kF2ZKCdog9oHYM3yt+uBkUtDe0TF
fz8/+dwRPoy6vRNz+IGPTTxKSqcT/H3DM6JPjjlD+XzsWa1UR+MIo3u95coAsFvO
PfYNpzUlnqNQF5IsEq7RhRe8CbJcBqYkrS/QV1sNg7XI98D5MdEMG3DEp5GGQPd2
oKFyf9KjxP9nqIri6YIZoZMlJ8tmEnjX8KBpPkJ3lPQVqUjQc/zoU2GHy5Xec78q
uvwydKu6vyFFhVarVstRWPzGSak52/N2Khi+xgrWXAlcHh/XQUw08VnOfcn9gmWl
rkY09xPBz6MOMsD8D3eZ+Q==
-----END CERTIFICATE-----
