Certificate:
    Data:
        Version: 3 (0x2)
        Serial Number: 1 (0x1)
        Signature Algorithm: sha256WithRSAEncryption
        Issuer: C=GB, ST=Derbyshire, O=Paho Project, OU=Testing, CN=Signing CA
        Validity
            Not Before: Aug 20 00:00:00 2012 GMT
            Not After : Aug 21 00:00:00 2012 GMT
        Subject: C=GB, ST=Nottinghamshire, L=Nottingham, O=Server, OU=Production, CN=localhost
        Subject Public Key Info:
            Public Key Algorithm: rsaEncryption
                RSA Public-Key: (2048 bit)
                Modulus:
                    00:a9:4c:88:db:56:36:f8:fc:e1:eb:6b:ad:9c:0f:
                    78:3e:7d:d7:34:c6:83:94:6d:83:07:d5:3e:cb:fb:
                    95:61:e5:73:78:43:db:51:d9:a0:4e:ec:8e:43:21:
                    91:1f:56:95:08:47:7c:83:38:90:bb:53:91:ed:fd:
                    b4:bd:08:27:dd:d6:d9:5b:fd:bb:84:1e:2e:62:d9:
                    3c:1d:4d:c9:6b:17:45:d7:9e:b4:a5:9c:22:cd:14:
                    41:32:c3:41:ad:8d:f5:2f:a3:d5:59:1f:a1:2b:67:
                    d3:01:83:64:93:80:6b:bf:5a:b8:51:86:20:a0:e4:
                    3f:18:0c:67:19:8d:e3:58:6d:85:83:8f:8b:37:b2:
                    7d:21:3f:65:cf:19:53:2e:56:df:4d:89:50:7e:8c:
                    6a:8e:dd:21:15:15:31:9b:c2:5c:98:68:1e:31:ff:
                    c6:6c:1f:a8:42:b8:da:62:dc:ae:62:4c:40:f0:06:
                    c6:e6:f4:a9:98:3d:ed:fb:c0:2a:63:da:60:69:83:
                    11:0e:ce:ba:93:d7:4b:27:8f:86:91:ef:e4:65:5f:
                    20:be:04:f2:4d:d6:d1:74:c5:ab:e9:18:df:16:f9:
                    9a:8a:ff:2f:23:c5:46:3e:04:16:4e:fa:c1:0a:f4:
                    dc:8e:1a:da:5f:a1:ad:50:7a:5d:60:00:3e:09:b8:
                    8e:6d
                Exponent: 65537 (0x10001)
        X509v3 extensions:
            X509v3 Basic Constraints: 
                CA:FALSE
            Netscape Comment: 
                OpenSSL Generated Certificate
            X509v3 Subject Key Identifier: 
                C3:47:33:CF:07:18:14:7C:9A:E4:AB:11:62:89:88:54:3D:5D:7D:E8
            X509v3 Authority Key Identifier: 
                keyid:C2:8F:09:9B:D5:F1:BA:C4:74:5E:97:50:BB:86:9D:A1:F1:FA:C4:36

    Signature Algorithm: sha256WithRSAEncryption
         ca:b6:c4:8a:76:e2:14:01:2f:58:ea:5f:28:f3:1d:de:a5:73:
         17:13:d0:5a:2f:51:f8:a7:79:34:06:9d:73:8e:c9:bd:ba:e4:
         03:64:7b:fc:29:b1:f3:4a:22:a1:bd:31:7a:4e:03:0d:f0:0c:
         b0:d8:40:03:7a:b6:a5:2a:ff:78:0b:de:49:7b:ee:11:97:52:
         2a:df:68:53:d3:88:ac:bd:f2:04:25:68:04:12:8f:ea:26:05:
         0d:9b:71:76:a9:cd:ff:99:78:44:86:07:56:04:14:c6:d7:1d:
         63:6e:9f:07:76:95:0b:a0:2b:a2:0d:c4:79:ff:80:c2:80:cb:
         83:c3:ec:ae:46:62:bb:09:71:c9:65:00:b8:6a:13:a4:a7:31:
         ad:ff:81:97:1c:84:1e:16:d5:c2:69:83:88:63:2d:33:31:52:
         1b:fc:dc:c7:40:5c:c8:3e:0a:15:87:7f:82:47:8d:3e:f2:3e:
         43:34:c1:8f:9c:16:61:1e:17:3f:4b:37:e1:aa:80:ad:87:09:
         cb:5c:fe:5a:28:4d:85:ca:45:58:6f:a6:ab:e2:f7:7a:24:c9:
         34:2a:75:b9:29:b8:db:cf:0b:72:e3:89:06:d6:6c:a9:9f:82:
         e6:0f:90:b9:1a:4e:d1:f1:24:32:79:77:d3:cf:8f:27:64:f3:
         d6:3e:ff:45
-----BEGIN CERTIFICATE-----
MIIDzDCCArSgAwIBAgIBATANBgkqhkiG9w0BAQsFADBgMQswCQYDVQQGEwJHQjET
MBEGA1UECAwKRGVyYnlzaGlyZTEVMBMGA1UECgwMUGFobyBQcm9qZWN0MRAwDgYD
VQQLDAdUZXN0aW5nMRMwEQYDVQQDDApTaWduaW5nIENBMB4XDTEyMDgyMDAwMDAw
MFoXDTEyMDgyMTAwMDAwMFowdjELMAkGA1UEBhMCR0IxGDAWBgNVBAgMD05vdHRp
bmdoYW1zaGlyZTETMBEGA1UEBwwKTm90dGluZ2hhbTEPMA0GA1UECgwGU2VydmVy
MRMwEQYDVQQLDApQcm9kdWN0aW9uMRIwEAYDVQQDDAlsb2NhbGhvc3QwggEiMA0G
CSqGSIb3DQEBAQUAA4IBDwAwggEKAoIBAQCpTIjbVjb4/OHra62cD3g+fdc0xoOU
bYMH1T7L+5Vh5XN4Q9tR2aBO7I5DIZEfVpUIR3yDOJC7U5Ht/bS9CCfd1tlb/buE
Hi5i2TwdTclrF0XXnrSlnCLNFEEyw0GtjfUvo9VZH6ErZ9MBg2STgGu/WrhRhiCg
5D8YDGcZjeNYbYWDj4s3sn0hP2XPGVMuVt9NiVB+jGqO3SEVFTGbwlyYaB4x/8Zs
H6hCuNpi3K5iTEDwBsbm9KmYPe37wCpj2mBpgxEOzrqT10snj4aR7+RlXyC+BPJN
1tF0xavpGN8W+ZqK/y8jxUY+BBZO+sEK9NyOGtpfoa1Qel1gAD4JuI5tAgMBAAGj
ezB5MAkGA1UdEwQCMAAwLAYJYIZIAYb4QgENBB8WHU9wZW5TU0wgR2VuZXJhdGVk
IENlcnRpZmljYXRlMB0GA1UdDgQWBBTDRzPPBxgUfJrkqxFiiYhUPV196DAfBgNV
HSMEGDAWgBTCjwmb1fG6xHRel1C7hp2h8frENjANBgkqhkiG9w0BAQsFAAOCAQEA
yrbEinbiFAEvWOpfKPMd3qVzFxPQWi9R+Kd5NAadc47JvbrkA2R7/Cmx80oiob0x
ek4DDfAMsNhAA3q2pSr/eAveSXvuEZdSKt9oU9OIrL3yBCVoBBKP6iYFDZtxdqnN
/5l4RIYHVgQUxtcdY26fB3aVC6Arog3Eef+AwoDLg8PsrkZiuwlxyWUAuGoTpKcx
rf+BlxyEHhbVwmmDiGMtMzFSG/zcx0BcyD4KFYd/gkeNPvI+QzTBj5wWYR4XP0s3
4aqArYcJy1z+WihNhcpFWG+mq+L3eiTJNCp1uSm4288LcuOJBtZsqZ+C5g+QuRpO
0fEkMnl308+PJ2Tz1j7/RQ==
-----END CERTIFICATE-----
