Certificate:
    Data:
        Version: 3 (0x2)
        Serial Number: 1 (0x1)
        Signature Algorithm: sha256WithRSAEncryption
        Issuer: C=GB, ST=Derbyshire, O=Paho Project, OU=Testing, CN=Signing CA
        Validity
            Not Before: Jul  7 11:14:42 2021 GMT
            Not After : Jul  6 11:14:42 2026 GMT
        Subject: C=GB, ST=Nottinghamshire, L=Nottingham, O=Server, OU=Production, CN=localhost
        Subject Public Key Info:
            Public Key Algorithm: rsaEncryption
                RSA Public-Key: (2048 bit)
                Modulus:
                    00:a9:4c:88:db:56:36:f8:fc:e1:eb:6b:ad:9c:0f:
                    78:3e:7d:d7:34:c6:83:94:6d:83:07:d5:3e:cb:fb:
                    95:61:e5:73:78:43:db:51:d9:a0:4e:ec:8e:43:21:
                    91:1f:56:95:08:47:7c:83:38:90:bb:53:91:ed:fd:
                    b4:bd:08:27:dd:d6:d9:5b:fd:bb:84:1e:2e:62:d9:
                    3c:1d:4d:c9:6b:17:45:d7:9e:b4:a5:9c:22:cd:14:
                    41:32:c3:41:ad:8d:f5:2f:a3:d5:59:1f:a1:2b:67:
                    d3:01:83:64:93:80:6b:bf:5a:b8:51:86:20:a0:e4:
                    3f:18:0c:67:19:8d:e3:58:6d:85:83:8f:8b:37:b2:
                    7d:21:3f:65:cf:19:53:2e:56:df:4d:89:50:7e:8c:
                    6a:8e:dd:21:15:15:31:9b:c2:5c:98:68:1e:31:ff:
                    c6:6c:1f:a8:42:b8:da:62:dc:ae:62:4c:40:f0:06:
                    c6:e6:f4:a9:98:3d:ed:fb:c0:2a:63:da:60:69:83:
                    11:0e:ce:ba:93:d7:4b:27:8f:86:91:ef:e4:65:5f:
                    20:be:04:f2:4d:d6:d1:74:c5:ab:e9:18:df:16:f9:
                    9a:8a:ff:2f:23:c5:46:3e:04:16:4e:fa:c1:0a:f4:
                    dc:8e:1a:da:5f:a1:ad:50:7a:5d:60:00:3e:09:b8:
                    8e:6d
                Exponent: 65537 (0x10001)
        X509v3 extensions:
            X509v3 Basic Constraints: 
                CA:FALSE
            Netscape Comment: 
                OpenSSL Generated Certificate
            X509v3 Subject Key Identifier: 
                C3:47:33:CF:07:18:14:7C:9A:E4:AB:11:62:89:88:54:3D:5D:7D:E8
            X509v3 Authority Key Identifier: 
                keyid:C2:8F:09:9B:D5:F1:BA:C4:74:5E:97:50:BB:86:9D:A1:F1:FA:C4:36

    Signature Algorithm: sha256WithRSAEncryption
         a9:34:8d:b4:6c:99:14:e7:10:dc:36:7e:c2:24:7f:bf:9d:65:
         4c:2b:50:90:13:de:85:29:d7:b0:d5:c2:a0:d6:c2:42:40:9f:
         6a:b7:6a:05:cf:7e:57:ff:2c:3c:ba:0c:cf:e7:0a:92:89:6e:
         8b:bb:0c:b5:28:79:00:76:ed:12:cc:54:79:05:41:88:26:c9:
         e3:a8:6b:ba:1a:31:92:e6:40:2c:c6:a9:e8:4b:1b:4c:25:f1:
         7b:c5:19:0b:73:37:53:86:d5:8e:d1:1c:78:73:e4:a5:84:0f:
         49:5a:eb:80:15:09:c2:69:83:34:c0:da:db:9d:fa:eb:32:1f:
         e0:2e:99:f2:b0:76:91:8a:eb:34:b5:4d:c9:79:2a:f8:ef:f0:
         6d:55:a4:9d:f9:5f:61:d3:f8:ab:95:0a:12:12:64:33:c3:2f:
         6b:64:14:31:bf:42:c9:c8:9e:be:45:4f:02:c8:50:54:be:79:
         fe:e2:9a:fa:2d:b7:73:25:34:ea:53:dd:03:a4:f9:82:28:a7:
         95:37:f7:45:56:21:7a:e6:71:eb:95:34:99:15:1c:26:ac:00:
         bc:95:b0:91:d8:8a:d0:0d:98:8e:28:d7:76:14:b6:94:c9:ab:
         df:87:40:58:12:da:ee:65:d8:08:f2:05:f2:5e:3e:d2:8d:09:
         38:8f:b2:79
-----BEGIN CERTIFICATE-----
MIIDzDCCArSgAwIBAgIBATANBgkqhkiG9w0BAQsFADBgMQswCQYDVQQGEwJHQjET
MBEGA1UECAwKRGVyYnlzaGlyZTEVMBMGA1UECgwMUGFobyBQcm9qZWN0MRAwDgYD
VQQLDAdUZXN0aW5nMRMwEQYDVQQDDApTaWduaW5nIENBMB4XDTIxMDcwNzExMTQ0
MloXDTI2MDcwNjExMTQ0MlowdjELMAkGA1UEBhMCR0IxGDAWBgNVBAgMD05vdHRp
bmdoYW1zaGlyZTETMBEGA1UEBwwKTm90dGluZ2hhbTEPMA0GA1UECgwGU2VydmVy
MRMwEQYDVQQLDApQcm9kdWN0aW9uMRIwEAYDVQQDDAlsb2NhbGhvc3QwggEiMA0G
CSqGSIb3DQEBAQUAA4IBDwAwggEKAoIBAQCpTIjbVjb4/OHra62cD3g+fdc0xoOU
bYMH1T7L+5Vh5XN4Q9tR2aBO7I5DIZEfVpUIR3yDOJC7U5Ht/bS9CCfd1tlb/buE
Hi5i2TwdTclrF0XXnrSlnCLNFEEyw0GtjfUvo9VZH6ErZ9MBg2STgGu/WrhRhiCg
5D8YDGcZjeNYbYWDj4s3sn0hP2XPGVMuVt9NiVB+jGqO3SEVFTGbwlyYaB4x/8Zs
H6hCuNpi3K5iTEDwBsbm9KmYPe37wCpj2mBpgxEOzrqT10snj4aR7+RlXyC+BPJN
1tF0xavpGN8W+ZqK/y8jxUY+BBZO+sEK9NyOGtpfoa1Qel1gAD4JuI5tAgMBAAGj
ezB5MAkGA1UdEwQCMAAwLAYJYIZIAYb4QgENBB8WHU9wZW5TU0wgR2VuZXJhdGVk
IENlcnRpZmljYXRlMB0GA1UdDgQWBBTDRzPPBxgUfJrkqxFiiYhUPV196DAfBgNV
HSMEGDAWgBTCjwmb1fG6xHRel1C7hp2h8frENjANBgkqhkiG9w0BAQsFAAOCAQEA
qTSNtGyZFOcQ3DZ+wiR/v51lTCtQkBPehSnXsNXCoNbCQkCfardqBc9+V/8sPLoM
z+cKkolui7sMtSh5AHbtEsxUeQVBiCbJ46hruhoxkuZALMap6EsbTCXxe8UZC3M3
U4bVjtEceHPkpYQPSVrrgBUJwmmDNMDa25366zIf4C6Z8rB2kYrrNLVNyXkq+O/w
bVWknflfYdP4q5UKEhJkM8Mva2QUMb9CycievkVPAshQVL55/uKa+i23cyU06lPd
A6T5giinlTf3RVYheuZx65U0mRUcJqwAvJWwkdiK0A2YjijXdhS2lMmr34dAWBLa
7mXYCPIF8l4+0o0JOI+yeQ==
-----END CERTIFICATE-----
