Certificate:
    Data:
        Version: 3 (0x2)
        Serial Number: 1 (0x1)
        Signature Algorithm: sha256WithRSAEncryption
        Issuer: C=GB, ST=Derbyshire, L=Derby, O=Paho Project, OU=Testing, CN=Root CA
        Validity
            Not Before: Jul  7 11:14:42 2021 GMT
            Not After : Jul  6 11:14:42 2026 GMT
        Subject: C=GB, ST=Derbyshire, O=Paho Project, OU=Testing, CN=Signing CA
        Subject Public Key Info:
            Public Key Algorithm: rsaEncryption
                RSA Public-Key: (2048 bit)
                Modulus:
                    00:cb:32:6c:8c:48:e8:44:58:36:18:70:36:42:3d:
                    2d:29:47:3c:69:12:9e:7b:f7:45:62:ef:91:44:46:
                    97:a0:ea:5f:da:fd:9f:98:d4:bf:43:02:e3:39:90:
                    33:7b:13:13:d5:31:30:9c:07:fc:ca:1b:a9:e4:89:
                    42:e5:d0:6e:f4:a2:e0:23:ee:9d:9a:cc:80:3b:78:
                    bf:7e:27:a8:46:1b:28:9f:4a:64:53:7a:89:3e:ab:
                    65:6f:af:0b:29:fa:4d:4f:04:f1:1e:10:2c:bf:2b:
                    ea:fc:c5:fa:77:c9:1a:7a:78:29:f5:a2:cb:25:7c:
                    02:bb:91:8d:76:4d:23:bc:9c:19:da:be:c5:20:04:
                    ad:fe:bd:b9:d4:bb:29:2a:c3:e4:fc:4c:84:db:a3:
                    55:9f:f0:70:7f:40:38:b5:c3:78:a5:db:06:36:b7:
                    10:8e:ca:6c:1a:92:66:be:0e:1a:97:59:6b:18:f4:
                    c2:b8:c9:31:7b:d1:b1:a1:00:78:7f:c0:09:f6:ef:
                    b2:8f:94:87:5d:b1:a2:23:93:4d:ec:fa:95:09:a9:
                    90:c4:02:f0:1e:d9:ab:a2:8b:7f:7f:54:95:e7:da:
                    c3:c9:7d:a7:d7:04:89:59:db:88:9d:57:16:5d:b9:
                    66:b0:d6:88:bb:e0:ee:43:e9:ab:02:78:fc:bd:e8:
                    98:d9
                Exponent: 65537 (0x10001)
        X509v3 extensions:
            X509v3 Subject Key Identifier: 
                C2:8F:09:9B:D5:F1:BA:C4:74:5E:97:50:BB:86:9D:A1:F1:FA:C4:36
            X509v3 Authority Key Identifier: 
                keyid:13:A0:B6:1F:F5:C7:64:C2:F9:FD:2E:08:F2:19:01:77:54:19:73:7F

            X509v3 Basic Constraints: 
                CA:TRUE
    Signature Algorithm: sha256WithRSAEncryption
         3e:70:76:69:37:e4:6e:e0:08:c6:8e:5b:2e:aa:26:fe:e9:ed:
         ac:02:ce:2c:37:08:6a:8a:c3:0d:c0:ef:43:51:01:2e:e0:96:
         76:23:1b:1f:75:98:df:7c:d1:b7:c1:67:aa:62:c1:bd:ef:84:
         eb:d9:28:47:50:f2:1b:54:7f:ed:cb:52:f7:fc:c3:f8:62:22:
         0c:b3:95:ed:bb:3f:74:91:bc:d2:eb:c0:81:7d:74:12:85:61:
         a3:7e:fb:22:4a:25:99:0b:5d:ef:69:f2:5a:e6:d5:12:a3:95:
         38:30:0c:c7:d9:da:28:30:10:b4:3d:3e:ad:20:85:31:e0:bf:
         30:33:2e:0b:e3:07:3d:ed:22:dc:67:f8:93:64:89:ed:e7:08:
         74:b5:0a:7a:01:3d:f9:44:62:71:cf:60:12:92:c3:95:9a:e5:
         a5:f2:24:6a:22:64:d5:76:22:c9:03:1c:c5:d1:a5:85:4d:55:
         f9:80:47:ca:12:20:df:05:fb:82:12:45:6f:e8:c0:20:a8:ae:
         f7:17:c5:c3:b6:9c:51:bd:d8:84:e4:db:c7:03:44:d2:cb:75:
         51:79:3f:86:33:3c:e4:34:1d:77:b2:60:24:5c:21:c5:c3:53:
         36:08:2f:a7:14:0b:68:78:67:95:90:b9:06:0e:85:04:65:57:
         b4:34:31:cf
-----BEGIN CERTIFICATE-----
MIIDmDCCAoCgAwIBAgIBATANBgkqhkiG9w0BAQsFADBtMQswCQYDVQQGEwJHQjET
MBEGA1UECAwKRGVyYnlzaGlyZTEOMAwGA1UEBwwFRGVyYnkxFTATBgNVBAoMDFBh
aG8gUHJvamVjdDEQMA4GA1UECwwHVGVzdGluZzEQMA4GA1UEAwwHUm9vdCBDQTAe
Fw0yMTA3MDcxMTE0NDJaFw0yNjA3MDYxMTE0NDJaMGAxCzAJBgNVBAYTAkdCMRMw
EQYDVQQIDApEZXJieXNoaXJlMRUwEwYDVQQKDAxQYWhvIFByb2plY3QxEDAOBgNV
BAsMB1Rlc3RpbmcxEzARBgNVBAMMClNpZ25pbmcgQ0EwggEiMA0GCSqGSIb3DQEB
AQUAA4IBDwAwggEKAoIBAQDLMmyMSOhEWDYYcDZCPS0pRzxpEp5790Vi75FERpeg
6l/a/Z+Y1L9DAuM5kDN7ExPVMTCcB/zKG6nkiULl0G70ouAj7p2azIA7eL9+J6hG
GyifSmRTeok+q2Vvrwsp+k1PBPEeECy/K+r8xfp3yRp6eCn1osslfAK7kY12TSO8
nBnavsUgBK3+vbnUuykqw+T8TITbo1Wf8HB/QDi1w3il2wY2txCOymwakma+DhqX
WWsY9MK4yTF70bGhAHh/wAn277KPlIddsaIjk03s+pUJqZDEAvAe2auii39/VJXn
2sPJfafXBIlZ24idVxZduWaw1oi74O5D6asCePy96JjZAgMBAAGjUDBOMB0GA1Ud
DgQWBBTCjwmb1fG6xHRel1C7hp2h8frENjAfBgNVHSMEGDAWgBQToLYf9cdkwvn9
LgjyGQF3VBlzfzAMBgNVHRMEBTADAQH/MA0GCSqGSIb3DQEBCwUAA4IBAQA+cHZp
N+Ru4AjGjlsuqib+6e2sAs4sNwhqisMNwO9DUQEu4JZ2IxsfdZjffNG3wWeqYsG9
74Tr2ShHUPIbVH/ty1L3/MP4YiIMs5Xtuz90kbzS68CBfXQShWGjfvsiSiWZC13v
afJa5tUSo5U4MAzH2dooMBC0PT6tIIUx4L8wMy4L4wc97SLcZ/iTZInt5wh0tQp6
AT35RGJxz2ASksOVmuWl8iRqImTVdiLJAxzF0aWFTVX5gEfKEiDfBfuCEkVv6MAg
qK73F8XDtpxRvdiE5NvHA0TSy3VReT+GMzzkNB13smAkXCHFw1M2CC+nFAtoeGeV
kLkGDoUEZVe0NDHP
-----END CERTIFICATE-----
