Certificate:
    Data:
        Version: 3 (0x2)
        Serial Number: 2 (0x2)
        Signature Algorithm: sha256WithRSAEncryption
        Issuer: C=GB, ST=Derbyshire, L=Derby, O=Paho Project, OU=Testing, CN=Root CA
        Validity
            Not Before: Jul 28 09:12:10 2020 GMT
            Not After : Jul 27 09:12:10 2025 GMT
        Subject: C=GB, ST=Derbyshire, O=Paho Project, OU=Testing, CN=Alternative Signing CA
        Subject Public Key Info:
            Public Key Algorithm: rsaEncryption
                RSA Public-Key: (2048 bit)
                Modulus:
                    00:bd:c2:9f:2c:d2:a7:25:79:f0:3f:29:65:ac:d3:
                    8c:ea:72:d2:73:2d:1b:5b:e3:0c:a1:5a:40:f4:a9:
                    68:bc:a4:50:77:c9:08:75:12:a3:21:3d:a9:d6:dc:
                    dc:08:b4:47:32:7e:ad:f4:87:de:48:fd:83:d1:b7:
                    e4:ce:3b:8b:87:99:3c:fa:6b:0e:1c:70:71:6d:d9:
                    b4:75:7c:6e:2a:03:cc:0e:bb:c7:8c:31:53:67:11:
                    2f:fd:97:c9:67:05:48:23:81:60:f5:94:94:af:61:
                    1c:a8:c1:4d:fe:2b:2e:f8:e6:bd:30:c2:52:ec:56:
                    7a:b7:64:d0:a2:bf:09:e4:d2:a3:c3:f1:f9:e7:12:
                    96:45:06:20:a2:fd:49:43:87:a7:0f:c1:c6:58:46:
                    9f:1d:9f:be:86:ce:49:de:c7:35:4d:fd:08:9a:61:
                    3f:ed:1f:cd:5c:55:77:4f:cc:0e:52:51:2a:7e:04:
                    4c:10:e1:79:88:9e:f6:8b:6b:bc:20:d2:6b:e9:c4:
                    c6:94:bc:d8:06:57:a1:b6:b2:30:cd:0d:d3:27:b3:
                    9e:1b:ac:40:81:6a:f0:a3:f6:62:22:14:40:61:9d:
                    26:82:b1:aa:fa:0a:0a:45:54:7d:5d:02:59:70:e6:
                    d2:f9:fc:45:58:83:10:2a:db:10:e3:7d:10:73:1b:
                    d9:49
                Exponent: 65537 (0x10001)
        X509v3 extensions:
            X509v3 Subject Key Identifier: 
                3A:BA:37:57:E0:82:EB:BA:77:1B:50:07:A6:C9:22:EA:92:76:F9:1C
            X509v3 Authority Key Identifier: 
                keyid:C7:BD:C0:22:65:FF:A7:97:A7:CB:9D:7E:44:E5:13:77:39:7D:BE:BA

            X509v3 Basic Constraints: 
                CA:TRUE
    Signature Algorithm: sha256WithRSAEncryption
         05:07:f6:5d:7d:2d:5e:35:07:82:1e:cd:06:e6:b6:4c:1b:03:
         b4:28:3e:16:22:0d:26:5f:f9:69:19:72:24:5a:fb:c6:cf:70:
         c8:a6:a6:19:8d:10:56:c4:d5:76:bb:38:93:e0:ff:d0:a0:81:
         47:36:e7:b6:f5:bf:99:36:28:d1:db:59:c0:e9:84:95:0f:db:
         c0:84:86:9a:ef:78:ac:dd:83:6d:51:e8:ae:28:b4:f8:78:bb:
         91:87:f5:35:21:fd:12:ff:41:33:7f:22:1e:16:f3:43:c9:97:
         e2:16:35:db:e8:c8:ee:5a:3e:d4:43:c1:90:52:12:7c:f7:7e:
         18:ee:60:be:61:41:3a:aa:2d:99:f3:44:86:3c:fd:03:e1:a2:
         d8:e1:1c:49:b0:39:3e:8c:f6:38:00:4a:84:a5:54:98:ef:c0:
         6d:2d:48:4a:13:fb:80:5f:58:a1:95:86:3a:a1:63:56:fe:23:
         7f:db:c9:19:a5:22:cb:34:a9:10:cb:b4:95:9f:c9:c6:16:e0:
         e3:50:7a:29:60:b0:fe:c7:f5:c8:f9:c6:3b:82:a6:a8:d9:0c:
         5b:aa:58:f2:31:c3:98:20:87:d8:a1:63:ad:52:ae:b2:85:57:
         10:d5:75:9e:73:35:47:c5:22:26:1f:53:38:52:4d:fd:2e:16:
         00:15:d4:da
-----BEGIN CERTIFICATE-----
MIIDpDCCAoygAwIBAgIBAjANBgkqhkiG9w0BAQsFADBtMQswCQYDVQQGEwJHQjET
MBEGA1UECAwKRGVyYnlzaGlyZTEOMAwGA1UEBwwFRGVyYnkxFTATBgNVBAoMDFBh
aG8gUHJvamVjdDEQMA4GA1UECwwHVGVzdGluZzEQMA4GA1UEAwwHUm9vdCBDQTAe
Fw0yMDA3MjgwOTEyMTBaFw0yNTA3MjcwOTEyMTBaMGwxCzAJBgNVBAYTAkdCMRMw
EQYDVQQIDApEZXJieXNoaXJlMRUwEwYDVQQKDAxQYWhvIFByb2plY3QxEDAOBgNV
BAsMB1Rlc3RpbmcxHzAdBgNVBAMMFkFsdGVybmF0aXZlIFNpZ25pbmcgQ0EwggEi
MA0GCSqGSIb3DQEBAQUAA4IBDwAwggEKAoIBAQC9wp8s0qclefA/KWWs04zqctJz
LRtb4wyhWkD0qWi8pFB3yQh1EqMhPanW3NwItEcyfq30h95I/YPRt+TOO4uHmTz6
aw4ccHFt2bR1fG4qA8wOu8eMMVNnES/9l8lnBUgjgWD1lJSvYRyowU3+Ky745r0w
wlLsVnq3ZNCivwnk0qPD8fnnEpZFBiCi/UlDh6cPwcZYRp8dn76GzknexzVN/Qia
YT/tH81cVXdPzA5SUSp+BEwQ4XmInvaLa7wg0mvpxMaUvNgGV6G2sjDNDdMns54b
rECBavCj9mIiFEBhnSaCsar6CgpFVH1dAllw5tL5/EVYgxAq2xDjfRBzG9lJAgMB
AAGjUDBOMB0GA1UdDgQWBBQ6ujdX4ILruncbUAemySLqknb5HDAfBgNVHSMEGDAW
gBTHvcAiZf+nl6fLnX5E5RN3OX2+ujAMBgNVHRMEBTADAQH/MA0GCSqGSIb3DQEB
CwUAA4IBAQAFB/ZdfS1eNQeCHs0G5rZMGwO0KD4WIg0mX/lpGXIkWvvGz3DIpqYZ
jRBWxNV2uziT4P/QoIFHNue29b+ZNijR21nA6YSVD9vAhIaa73is3YNtUeiuKLT4
eLuRh/U1If0S/0EzfyIeFvNDyZfiFjXb6MjuWj7UQ8GQUhJ8934Y7mC+YUE6qi2Z
80SGPP0D4aLY4RxJsDk+jPY4AEqEpVSY78BtLUhKE/uAX1ihlYY6oWNW/iN/28kZ
pSLLNKkQy7SVn8nGFuDjUHopYLD+x/XI+cY7gqao2QxbqljyMcOYIIfYoWOtUq6y
hVcQ1XWeczVHxSImH1M4Uk39LhYAFdTa
-----END CERTIFICATE-----
