Certificate:
    Data:
        Version: 3 (0x2)
        Serial Number: 1 (0x1)
    Signature Algorithm: sha256WithRSAEncryption
        Issuer: C=GB, ST=Derbyshire, L=Derby, O=Paho Project, OU=Testing, CN=Root CA
        Validity
            Not Before: Aug  1 19:40:46 2018 GMT
            Not After : Jul 31 19:40:46 2023 GMT
        Subject: C=GB, ST=Derbyshire, O=Paho Project, OU=Testing, CN=Signing CA
        Subject Public Key Info:
            Public Key Algorithm: rsaEncryption
                Public-Key: (1024 bit)
                Modulus:
                    00:e3:36:7b:b9:a6:9e:fe:31:6d:d6:7f:19:59:fb:
                    88:bb:39:2e:44:61:38:cf:5b:91:d9:3b:d2:66:a6:
                    4b:e3:9d:51:ab:12:54:29:8e:d5:dd:8b:a3:72:79:
                    81:88:17:7e:78:b4:a6:46:5a:d3:48:86:83:65:ca:
                    af:09:70:4a:60:62:2d:d1:c5:01:8b:7d:49:15:b8:
                    a7:53:1e:26:4e:d7:9c:88:8a:90:08:9e:e6:58:b5:
                    dc:bf:f3:7a:7f:06:91:d1:9c:9d:22:ab:ce:4b:b5:
                    52:2a:fb:ef:e7:53:5f:f5:82:38:a2:f6:c0:e9:bc:
                    47:1a:73:2d:e3:78:c4:95:ad
                Exponent: 65537 (0x10001)
        X509v3 extensions:
            X509v3 Subject Key Identifier: 
                8E:5E:D3:57:86:1A:E3:60:50:AE:BF:77:27:55:9B:4A:38:0D:EC:5B
            X509v3 Authority Key Identifier: 
                keyid:2C:52:18:A2:B2:B2:C5:23:B7:E9:AC:7E:1E:56:0D:54:A8:53:89:BB

            X509v3 Basic Constraints: 
                CA:TRUE
    Signature Algorithm: sha256WithRSAEncryption
         85:36:ef:5d:b7:fa:b5:8d:5d:f5:28:cb:c0:f2:cb:32:d2:31:
         11:61:63:b3:51:a3:4f:ae:26:36:71:ee:61:05:73:ea:71:9c:
         08:ad:d7:58:ba:3a:25:8e:3e:71:9e:8f:df:68:7e:68:f2:98:
         59:d4:d0:31:0e:71:cf:9d:40:7e:c3:b1:b8:64:55:31:d9:83:
         ca:14:83:0f:47:bd:e4:27:6e:2b:ec:c3:93:49:df:8f:61:21:
         01:4e:31:b1:f2:dc:97:c7:73:05:5e:03:11:22:c2:4f:eb:8b:
         d1:5c:81:b6:e5:67:76:95:81:9d:3f:0d:d9:9d:45:1d:ce:20:
         6d:a4
-----BEGIN CERTIFICATE-----
MIICkzCCAfygAwIBAgIBATANBgkqhkiG9w0BAQsFADBtMQswCQYDVQQGEwJHQjET
MBEGA1UECAwKRGVyYnlzaGlyZTEOMAwGA1UEBwwFRGVyYnkxFTATBgNVBAoMDFBh
aG8gUHJvamVjdDEQMA4GA1UECwwHVGVzdGluZzEQMA4GA1UEAwwHUm9vdCBDQTAe
Fw0xODA4MDExOTQwNDZaFw0yMzA3MzExOTQwNDZaMGAxCzAJBgNVBAYTAkdCMRMw
EQYDVQQIDApEZXJieXNoaXJlMRUwEwYDVQQKDAxQYWhvIFByb2plY3QxEDAOBgNV
BAsMB1Rlc3RpbmcxEzARBgNVBAMMClNpZ25pbmcgQ0EwgZ8wDQYJKoZIhvcNAQEB
BQADgY0AMIGJAoGBAOM2e7mmnv4xbdZ/GVn7iLs5LkRhOM9bkdk70mamS+OdUasS
VCmO1d2Lo3J5gYgXfni0pkZa00iGg2XKrwlwSmBiLdHFAYt9SRW4p1MeJk7XnIiK
kAie5li13L/zen8GkdGcnSKrzku1Uir77+dTX/WCOKL2wOm8RxpzLeN4xJWtAgMB
AAGjUDBOMB0GA1UdDgQWBBSOXtNXhhrjYFCuv3cnVZtKOA3sWzAfBgNVHSMEGDAW
gBQsUhiisrLFI7fprH4eVg1UqFOJuzAMBgNVHRMEBTADAQH/MA0GCSqGSIb3DQEB
CwUAA4GBAIU27123+rWNXfUoy8DyyzLSMRFhY7NRo0+uJjZx7mEFc+pxnAit11i6
OiWOPnGej99ofmjymFnU0DEOcc+dQH7DsbhkVTHZg8oUgw9HveQnbivsw5NJ349h
IQFOMbHy3JfHcwVeAxEiwk/ri9FcgbblZ3aVgZ0/DdmdRR3OIG2k
-----END CERTIFICATE-----
