Certificate:
    Data:
        Version: 3 (0x2)
        Serial Number: 2 (0x2)
    Signature Algorithm: sha1WithRSAEncryption
        Issuer: C=GB, ST=Derbyshire, L=Derby, O=Paho Project, OU=Testing, CN=Root CA
        Validity
            Not Before: Jul 29 19:21:30 2013 GMT
            Not After : Jul 28 19:21:30 2018 GMT
        Subject: C=GB, ST=Derbyshire, O=Paho Project, OU=Testing, CN=Alternative Signing CA
        Subject Public Key Info:
            Public Key Algorithm: rsaEncryption
                Public-Key: (1024 bit)
                Modulus:
                    00:d3:16:c8:c3:0c:90:e5:68:3d:11:13:a7:8e:fb:
                    11:c5:de:aa:3f:4d:ac:95:4f:c4:c2:60:8a:df:95:
                    b5:db:75:04:76:42:19:5f:d9:63:0e:e4:c0:8e:db:
                    a5:5f:21:ec:f3:3d:a0:c1:82:8b:61:b4:1a:5b:3c:
                    9e:42:bd:5f:5b:b4:a8:00:8d:e1:bf:99:93:c8:45:
                    1f:6d:29:ab:67:f0:35:9c:48:0b:a0:a2:18:32:70:
                    35:5e:ea:fe:1f:33:ab:b5:85:ef:1d:2a:a9:75:60:
                    38:ed:3a:33:be:5d:40:89:cb:0b:b3:25:e8:e7:bc:
                    13:6b:62:28:1d:a7:9c:aa:99
                Exponent: 65537 (0x10001)
        X509v3 extensions:
            X509v3 Subject Key Identifier: 
                3A:70:4C:5D:76:C6:B4:CF:E7:BC:4B:F4:CE:C6:B8:46:C2:95:41:9B
            X509v3 Authority Key Identifier: 
                keyid:4A:2B:69:D6:31:1D:A3:68:E8:46:6F:FB:4B:F3:8E:B6:8D:51:0E:BF

            X509v3 Basic Constraints: 
                CA:TRUE
    Signature Algorithm: sha1WithRSAEncryption
         2f:74:dd:ef:da:03:cf:14:78:ae:6f:0d:04:29:75:db:c5:a2:
         c0:fd:1e:46:bf:3c:25:3c:03:3b:a6:f4:f1:3a:89:54:83:e9:
         3a:0f:d7:81:9a:8d:7f:2d:6b:b1:ca:17:7f:ef:93:18:c4:68:
         b8:b2:1d:d2:9c:d9:9f:66:9d:18:25:18:b4:4f:72:bf:24:c5:
         0c:2d:fc:cf:ad:c8:ff:25:f1:36:12:72:b4:46:e1:c9:17:19:
         c5:1e:f5:26:8a:ae:33:5f:69:16:6f:62:ce:fc:ba:c3:a3:c5:
         50:a3:a5:42:a9:02:6a:25:77:90:3e:e3:b7:e5:ac:7f:3f:bb:
         1c:17
-----BEGIN CERTIFICATE-----
MIICnzCCAgigAwIBAgIBAjANBgkqhkiG9w0BAQUFADBtMQswCQYDVQQGEwJHQjET
MBEGA1UECAwKRGVyYnlzaGlyZTEOMAwGA1UEBwwFRGVyYnkxFTATBgNVBAoMDFBh
aG8gUHJvamVjdDEQMA4GA1UECwwHVGVzdGluZzEQMA4GA1UEAwwHUm9vdCBDQTAe
Fw0xMzA3MjkxOTIxMzBaFw0xODA3MjgxOTIxMzBaMGwxCzAJBgNVBAYTAkdCMRMw
EQYDVQQIDApEZXJieXNoaXJlMRUwEwYDVQQKDAxQYWhvIFByb2plY3QxEDAOBgNV
BAsMB1Rlc3RpbmcxHzAdBgNVBAMMFkFsdGVybmF0aXZlIFNpZ25pbmcgQ0EwgZ8w
DQYJKoZIhvcNAQEBBQADgY0AMIGJAoGBANMWyMMMkOVoPRETp477EcXeqj9NrJVP
xMJgit+Vtdt1BHZCGV/ZYw7kwI7bpV8h7PM9oMGCi2G0Gls8nkK9X1u0qACN4b+Z
k8hFH20pq2fwNZxIC6CiGDJwNV7q/h8zq7WF7x0qqXVgOO06M75dQInLC7Ml6Oe8
E2tiKB2nnKqZAgMBAAGjUDBOMB0GA1UdDgQWBBQ6cExddsa0z+e8S/TOxrhGwpVB
mzAfBgNVHSMEGDAWgBRKK2nWMR2jaOhGb/tL8462jVEOvzAMBgNVHRMEBTADAQH/
MA0GCSqGSIb3DQEBBQUAA4GBAC903e/aA88UeK5vDQQpddvFosD9Hka/PCU8Azum
9PE6iVSD6ToP14GajX8ta7HKF3/vkxjEaLiyHdKc2Z9mnRglGLRPcr8kxQwt/M+t
yP8l8TYScrRG4ckXGcUe9SaKrjNfaRZvYs78usOjxVCjpUKpAmold5A+47flrH8/
uxwX
-----END CERTIFICATE-----
