Certificate:
    Data:
        Version: 3 (0x2)
        Serial Number: 1 (0x1)
        Signature Algorithm: sha256WithRSAEncryption
        Issuer: C=GB, ST=Derbyshire, L=Derby, O=Paho Project, OU=Testing, CN=Root CA
        Validity
            Not Before: Jul  2 12:41:29 2024 GMT
            Not After : Nov  3 12:41:29 3023 GMT
        Subject: C=GB, ST=Derbyshire, O=Paho Project, OU=Testing, CN=Signing CA
        Subject Public Key Info:
            Public Key Algorithm: rsaEncryption
                RSA Public-Key: (2048 bit)
                Modulus:
                    00:c5:41:85:14:24:e3:bc:26:91:8f:86:59:f9:be:
                    66:b2:01:55:fb:b4:4c:c1:76:d3:5a:82:b6:51:5a:
                    39:67:6b:84:06:bb:84:aa:88:5c:c1:7c:ae:3f:40:
                    4d:f3:3e:49:24:8f:30:58:e9:05:30:0e:76:cb:92:
                    a1:e5:b6:d2:62:ed:92:31:b5:9b:d5:2f:c3:66:0b:
                    5f:71:ce:4e:36:85:03:87:af:98:df:a4:1d:e2:cf:
                    cd:66:90:68:99:62:d9:22:86:1b:a7:8c:01:ef:0b:
                    26:6f:c4:42:38:31:51:6d:ea:67:4a:24:9c:f8:8a:
                    c5:92:44:8d:13:08:13:43:ab:e9:ed:de:e6:28:c1:
                    7e:3c:e2:b7:e5:91:0a:e8:e5:ee:99:f3:ab:fa:b6:
                    ea:a3:ac:1c:4c:bd:01:7a:fa:67:2d:5f:de:1f:26:
                    7a:e0:e5:e6:53:2c:e3:85:00:1a:15:40:e6:07:1d:
                    53:76:1b:a4:c2:d9:67:d7:84:28:8d:3f:7e:ba:03:
                    fe:94:88:00:b0:03:79:a7:b5:c8:6b:91:02:90:a0:
                    72:ae:41:2c:33:b5:19:20:ef:38:78:10:2a:5b:80:
                    5f:25:34:ce:ab:79:e2:40:50:be:a0:e8:fe:30:a0:
                    78:96:e4:48:ba:55:8b:88:05:83:6d:ba:88:e5:1a:
                    08:e3
                Exponent: 65537 (0x10001)
        X509v3 extensions:
            X509v3 Subject Key Identifier: 
                DD:53:9E:8A:84:3B:CC:28:B4:5C:93:38:0B:7B:D2:6A:C5:49:F3:CF
            X509v3 Authority Key Identifier: 
                keyid:77:4F:69:A1:02:EB:51:D6:77:29:97:93:72:10:E4:26:F1:2A:54:E4

            X509v3 Basic Constraints: 
                CA:TRUE
    Signature Algorithm: sha256WithRSAEncryption
         51:0d:b0:71:10:54:ac:0b:ee:53:ee:27:39:03:27:eb:22:b8:
         2e:ad:ab:e7:14:8e:22:a1:44:8d:f8:a2:e4:cf:2a:d5:b8:f4:
         b9:9a:bf:3b:78:f1:2a:61:7e:c9:9f:66:20:83:12:e1:c0:26:
         a5:f7:f1:1f:a6:d7:fa:a1:98:36:29:8d:05:fb:6b:20:f1:a1:
         20:65:a2:b1:bc:08:2f:78:b0:f4:f4:a8:6b:10:ea:fc:3f:b7:
         c8:b9:a4:05:23:05:a9:0a:fe:53:cb:1c:8d:fe:76:f0:de:ef:
         90:a9:ff:b1:0a:50:38:8d:eb:de:1c:9f:33:01:f9:e6:cb:3c:
         80:27:52:1b:37:af:bb:7b:09:a7:37:79:f6:44:c2:3c:0e:68:
         90:b1:44:1d:cb:f2:3f:51:47:5b:f6:70:66:e8:36:a1:6c:ce:
         c3:13:41:96:b3:7a:03:bb:69:cc:a1:00:51:37:33:df:ab:ea:
         45:eb:a6:35:af:3a:0f:de:30:e0:5b:87:7c:86:9e:ae:5e:0f:
         8c:e4:7f:07:72:d4:44:ef:1f:6d:93:f9:2b:62:58:65:0f:c9:
         f0:e4:50:6c:38:24:f0:ae:b9:bb:71:ab:d0:1d:59:bc:81:e2:
         5f:0c:c4:75:ca:ac:23:cd:93:2c:66:19:a7:97:d4:8d:71:49:
         cd:00:7e:38
-----BEGIN CERTIFICATE-----
MIIDmjCCAoKgAwIBAgIBATANBgkqhkiG9w0BAQsFADBtMQswCQYDVQQGEwJHQjET
MBEGA1UECAwKRGVyYnlzaGlyZTEOMAwGA1UEBwwFRGVyYnkxFTATBgNVBAoMDFBh
aG8gUHJvamVjdDEQMA4GA1UECwwHVGVzdGluZzEQMA4GA1UEAwwHUm9vdCBDQTAg
Fw0yNDA3MDIxMjQxMjlaGA8zMDIzMTEwMzEyNDEyOVowYDELMAkGA1UEBhMCR0Ix
EzARBgNVBAgMCkRlcmJ5c2hpcmUxFTATBgNVBAoMDFBhaG8gUHJvamVjdDEQMA4G
A1UECwwHVGVzdGluZzETMBEGA1UEAwwKU2lnbmluZyBDQTCCASIwDQYJKoZIhvcN
AQEBBQADggEPADCCAQoCggEBAMVBhRQk47wmkY+GWfm+ZrIBVfu0TMF201qCtlFa
OWdrhAa7hKqIXMF8rj9ATfM+SSSPMFjpBTAOdsuSoeW20mLtkjG1m9Uvw2YLX3HO
TjaFA4evmN+kHeLPzWaQaJli2SKGG6eMAe8LJm/EQjgxUW3qZ0oknPiKxZJEjRMI
E0Or6e3e5ijBfjzit+WRCujl7pnzq/q26qOsHEy9AXr6Zy1f3h8meuDl5lMs44UA
GhVA5gcdU3YbpMLZZ9eEKI0/froD/pSIALADeae1yGuRApCgcq5BLDO1GSDvOHgQ
KluAXyU0zqt54kBQvqDo/jCgeJbkSLpVi4gFg226iOUaCOMCAwEAAaNQME4wHQYD
VR0OBBYEFN1TnoqEO8wotFyTOAt70mrFSfPPMB8GA1UdIwQYMBaAFHdPaaEC61HW
dymXk3IQ5CbxKlTkMAwGA1UdEwQFMAMBAf8wDQYJKoZIhvcNAQELBQADggEBAFEN
sHEQVKwL7lPuJzkDJ+siuC6tq+cUjiKhRI34ouTPKtW49Lmavzt48SphfsmfZiCD
EuHAJqX38R+m1/qhmDYpjQX7ayDxoSBlorG8CC94sPT0qGsQ6vw/t8i5pAUjBakK
/lPLHI3+dvDe75Cp/7EKUDiN694cnzMB+ebLPIAnUhs3r7t7Cac3efZEwjwOaJCx
RB3L8j9RR1v2cGboNqFszsMTQZazegO7acyhAFE3M9+r6kXrpjWvOg/eMOBbh3yG
nq5eD4zkfwdy1ETvH22T+StiWGUPyfDkUGw4JPCuubtxq9AdWbyB4l8MxHXKrCPN
kyxmGaeX1I1xSc0Afjg=
-----END CERTIFICATE-----
-----BEGIN CERTIFICATE-----
MIIDujCCAqKgAwIBAgIUEqCub7/2DHh/xPLq8G9qPvAnGWcwDQYJKoZIhvcNAQEL
BQAwbTELMAkGA1UEBhMCR0IxEzARBgNVBAgMCkRlcmJ5c2hpcmUxDjAMBgNVBAcM
BURlcmJ5MRUwEwYDVQQKDAxQYWhvIFByb2plY3QxEDAOBgNVBAsMB1Rlc3Rpbmcx
EDAOBgNVBAMMB1Jvb3QgQ0EwIBcNMjQwNzAyMTI0MTI5WhgPMzAyMzExMDMxMjQx
MjlaMG0xCzAJBgNVBAYTAkdCMRMwEQYDVQQIDApEZXJieXNoaXJlMQ4wDAYDVQQH
DAVEZXJieTEVMBMGA1UECgwMUGFobyBQcm9qZWN0MRAwDgYDVQQLDAdUZXN0aW5n
MRAwDgYDVQQDDAdSb290IENBMIIBIjANBgkqhkiG9w0BAQEFAAOCAQ8AMIIBCgKC
AQEA1CyhbM05FblEtPN7qcwBSV1kHxWBZ1D+jlKRST1+lxJ69p9TjRScC5GNaQ3J
lHGZOVrFiJyukQ+/gasgy/p5uSKB0J1dZ7lKI109uRD+fft/R4JCdxAIokzPT7pU
3WpC/oYX3NdHznzNoOjuJCQ2YLDXtC/XLUdu979CbT8Lw8A0sKYd3xtXUTIBO4en
LErdqsEM7IT6aydBdWoEbXrHj7UCVFZy01Z4rwPUK9nXXdspGzyehmrH7+mauW47
qDSA+s+CA/8IIdpRyDnYfhOd4OpXGK5rA4C98VbvsOTcuTTnbODj5Z2mEV2v9/YG
IEPFW/jbwyXfc7IG1adtfHC9dQIDAQABo1AwTjAdBgNVHQ4EFgQUd09poQLrUdZ3
KZeTchDkJvEqVOQwHwYDVR0jBBgwFoAUd09poQLrUdZ3KZeTchDkJvEqVOQwDAYD
VR0TBAUwAwEB/zANBgkqhkiG9w0BAQsFAAOCAQEArx+igXWIqzbOA6MaSYA6TlUV
uwj7gSfkTsWIzlP+cskdsZDlfs5C5/gjM14HqYQiawMHhYdaeNn45r70isYw8b9X
lYzapMYThopE/Ptrdg4HwFPVfQQjOXHRJm9EILXsksYXJZHRY2HYsfc/A4+G5XRY
H3V83esmgXoLccpTcCxn6gjzHXZjNWP4xL03/dLZgVaY+avdGHn+6d8iYLnCAM/D
emaNm5B0N1ruF9LAjr/kwVeyeCSH2zNPG4Q6/SbV+zl8rm59IacjfTxAdgKmlLLO
rmTs/rq4GZrZJOsm/CymbnIM5dL5LNH3Sm0NBIbNBk/KPAPsDewj9yCQS6b1Xg==
-----END CERTIFICATE-----
