Certificate:
    Data:
        Version: 3 (0x2)
        Serial Number: 2 (0x2)
        Signature Algorithm: sha256WithRSAEncryption
        Issuer: C=GB, ST=Derbyshire, O=Paho Project, OU=Testing, CN=Signing CA
        Validity
            Not Before: Jul  2 12:41:30 2024 GMT
            Not After : Nov  3 12:41:30 3023 GMT
        Subject: C=GB, ST=Nottinghamshire, L=Nottingham, O=Server, OU=Production, CN=test client
        Subject Public Key Info:
            Public Key Algorithm: rsaEncryption
                RSA Public-Key: (2048 bit)
                Modulus:
                    00:b2:2f:a5:43:b2:c7:bb:39:e8:26:54:0c:34:9f:
                    f0:0a:cc:e9:d0:e0:a2:76:b7:e1:d3:fc:4a:41:8d:
                    03:ae:b2:f5:87:20:37:12:5c:82:d2:54:d7:19:4e:
                    8d:0a:b1:58:94:67:6a:52:ee:b9:15:b7:01:07:a4:
                    f3:01:93:15:46:f0:98:de:93:d9:85:a3:36:03:1c:
                    18:89:cc:78:63:5a:56:97:77:f3:d8:44:0d:66:5f:
                    b6:db:1f:03:db:d4:65:eb:82:b1:4c:8e:c0:cb:c5:
                    ff:6f:97:eb:a2:c1:bc:77:39:1b:2f:e6:5c:8d:57:
                    4b:eb:a7:4d:59:17:10:61:0d:9a:f9:ad:8b:fb:f0:
                    5f:84:65:b8:52:ea:4d:4b:1f:ed:67:e8:01:f1:f5:
                    ef:24:de:9f:67:8e:ad:f6:9d:f8:75:00:73:88:cf:
                    9f:ef:0e:a7:2f:20:2f:74:00:90:35:d4:1c:b6:bd:
                    d2:33:7c:12:80:45:ec:89:b5:2d:9c:a6:dc:ae:66:
                    dc:61:7b:e7:52:2b:ed:93:69:7e:91:58:00:ff:b3:
                    b5:be:ce:cd:e2:6f:81:95:d0:71:90:70:21:4a:d3:
                    bc:3f:81:82:b9:01:e8:6a:d9:f8:fc:52:d6:84:26:
                    62:ca:4c:e0:26:bb:4b:6a:d0:c3:f3:67:92:45:5d:
                    9f:01
                Exponent: 65537 (0x10001)
        X509v3 extensions:
            X509v3 Basic Constraints: 
                CA:FALSE
            Netscape Comment: 
                OpenSSL Generated Certificate
            X509v3 Subject Key Identifier: 
                13:69:17:A2:F4:81:04:2B:4C:61:20:18:A2:15:C5:26:57:39:AD:22
            X509v3 Authority Key Identifier: 
                keyid:DD:53:9E:8A:84:3B:CC:28:B4:5C:93:38:0B:7B:D2:6A:C5:49:F3:CF

    Signature Algorithm: sha256WithRSAEncryption
         7e:73:bc:9a:a0:d8:97:b3:4a:eb:ec:81:9e:fe:4a:07:55:e1:
         39:10:34:46:36:ae:a0:d6:73:0a:13:bc:e6:5c:35:9b:5d:20:
         4d:bf:bd:ef:4e:93:df:18:10:ab:0d:21:9c:da:7a:e3:ee:31:
         c9:47:c0:6f:4b:3a:fe:b1:cb:cf:9f:b8:44:f8:97:68:e4:c8:
         c7:84:46:c2:10:09:70:82:85:41:65:9c:2d:43:67:5d:ca:e3:
         d6:c2:30:1c:ac:48:1b:ef:4e:7a:e9:3f:3b:d0:d6:f3:b4:97:
         7d:3c:c5:cb:a4:3d:f0:66:29:a7:74:b3:90:67:d3:94:5d:87:
         77:e7:e8:f1:13:df:a1:40:25:d5:4f:87:d5:39:a1:d6:57:eb:
         3d:eb:b4:b4:49:4c:c3:e4:61:6a:12:47:cc:50:f2:7b:56:3c:
         8b:e9:08:ed:36:d4:95:d8:e1:fd:2d:66:95:d6:63:ca:78:fe:
         be:2e:8c:1d:fe:51:44:48:73:2a:88:be:2a:67:66:e2:fa:63:
         ed:67:4f:82:24:de:1c:eb:d2:26:05:b8:a0:c4:3b:17:fd:e3:
         4f:55:7f:2f:1b:7a:e5:1e:06:03:e1:9a:34:51:c7:b0:9f:59:
         0c:b1:73:81:f4:c3:39:01:a7:f9:4b:e2:9f:7f:71:7f:5b:c9:
         94:58:19:76
-----BEGIN CERTIFICATE-----
MIID0DCCArigAwIBAgIBAjANBgkqhkiG9w0BAQsFADBgMQswCQYDVQQGEwJHQjET
MBEGA1UECAwKRGVyYnlzaGlyZTEVMBMGA1UECgwMUGFobyBQcm9qZWN0MRAwDgYD
VQQLDAdUZXN0aW5nMRMwEQYDVQQDDApTaWduaW5nIENBMCAXDTI0MDcwMjEyNDEz
MFoYDzMwMjMxMTAzMTI0MTMwWjB4MQswCQYDVQQGEwJHQjEYMBYGA1UECAwPTm90
dGluZ2hhbXNoaXJlMRMwEQYDVQQHDApOb3R0aW5naGFtMQ8wDQYDVQQKDAZTZXJ2
ZXIxEzARBgNVBAsMClByb2R1Y3Rpb24xFDASBgNVBAMMC3Rlc3QgY2xpZW50MIIB
IjANBgkqhkiG9w0BAQEFAAOCAQ8AMIIBCgKCAQEAsi+lQ7LHuznoJlQMNJ/wCszp
0OCidrfh0/xKQY0DrrL1hyA3ElyC0lTXGU6NCrFYlGdqUu65FbcBB6TzAZMVRvCY
3pPZhaM2AxwYicx4Y1pWl3fz2EQNZl+22x8D29Rl64KxTI7Ay8X/b5frosG8dzkb
L+ZcjVdL66dNWRcQYQ2a+a2L+/BfhGW4UupNSx/tZ+gB8fXvJN6fZ46t9p34dQBz
iM+f7w6nLyAvdACQNdQctr3SM3wSgEXsibUtnKbcrmbcYXvnUivtk2l+kVgA/7O1
vs7N4m+BldBxkHAhStO8P4GCuQHoatn4/FLWhCZiykzgJrtLatDD82eSRV2fAQID
AQABo3sweTAJBgNVHRMEAjAAMCwGCWCGSAGG+EIBDQQfFh1PcGVuU1NMIEdlbmVy
YXRlZCBDZXJ0aWZpY2F0ZTAdBgNVHQ4EFgQUE2kXovSBBCtMYSAYohXFJlc5rSIw
HwYDVR0jBBgwFoAU3VOeioQ7zCi0XJM4C3vSasVJ888wDQYJKoZIhvcNAQELBQAD
ggEBAH5zvJqg2JezSuvsgZ7+SgdV4TkQNEY2rqDWcwoTvOZcNZtdIE2/ve9Ok98Y
EKsNIZzaeuPuMclHwG9LOv6xy8+fuET4l2jkyMeERsIQCXCChUFlnC1DZ13K49bC
MBysSBvvTnrpPzvQ1vO0l308xcukPfBmKad0s5Bn05Rdh3fn6PET36FAJdVPh9U5
odZX6z3rtLRJTMPkYWoSR8xQ8ntWPIvpCO021JXY4f0tZpXWY8p4/r4ujB3+UURI
cyqIvipnZuL6Y+1nT4Ik3hzr0iYFuKDEOxf9409Vfy8beuUeBgPhmjRRx7CfWQyx
c4H0wzkBp/lL4p9/cX9byZRYGXY=
-----END CERTIFICATE-----
