Certificate:
    Data:
        Version: 3 (0x2)
        Serial Number: 5 (0x5)
        Signature Algorithm: sha256WithRSAEncryption
        Issuer: C=GB, ST=Derbyshire, O=Paho Project, OU=Testing, CN=Signing CA
        Validity
            Not Before: Jul  2 12:41:30 2024 GMT
            Not After : Nov  3 12:41:30 3023 GMT
        Subject: C=GB, ST=Nottinghamshire, L=Nottingham, O=Server, OU=Production, CN=test client revoked
        Subject Public Key Info:
            Public Key Algorithm: rsaEncryption
                RSA Public-Key: (2048 bit)
                Modulus:
                    00:c8:a1:6c:f7:a1:3b:6e:d1:c6:f4:cc:0b:52:b8:
                    10:b9:9c:4c:94:b6:e3:9e:ee:06:c9:3e:ac:84:87:
                    07:bc:a3:d0:f0:96:ff:be:d6:2a:f7:fd:a9:9a:55:
                    45:33:28:6a:96:6c:e3:71:a0:d5:89:d4:21:ce:cb:
                    3f:72:cd:5e:07:3c:bf:ca:01:c7:5a:72:83:3f:00:
                    53:81:d6:0f:70:f6:26:1a:24:c0:35:9f:86:e1:b0:
                    9f:6a:0f:c0:ff:38:8a:36:98:95:31:29:10:6d:a5:
                    9b:a7:43:02:71:ff:69:1a:aa:96:87:86:9d:a7:74:
                    fd:df:71:69:16:d6:84:bc:11:47:89:03:9a:c1:17:
                    80:8a:b7:8a:ef:68:bc:0d:a8:2e:c8:27:53:1b:26:
                    a7:2a:f0:31:85:f6:59:45:95:01:2b:ec:5a:cf:16:
                    e0:3e:ba:84:22:29:92:02:72:40:de:ac:c0:58:54:
                    b2:fb:85:ef:9e:c9:1d:34:0c:6f:83:8e:3e:37:d9:
                    8f:6f:af:44:6d:fc:5f:93:a3:9c:95:b9:ff:91:f9:
                    f1:b4:41:c5:29:ef:f7:df:4e:fa:9a:e5:0c:47:79:
                    1b:a1:7d:a3:46:8d:10:c2:f6:a4:fa:69:05:cf:c3:
                    7e:76:2e:4c:00:73:87:31:3d:0a:76:69:41:77:b6:
                    57:5d
                Exponent: 65537 (0x10001)
        X509v3 extensions:
            X509v3 Basic Constraints: 
                CA:FALSE
            Netscape Comment: 
                OpenSSL Generated Certificate
            X509v3 Subject Key Identifier: 
                CD:79:3A:92:91:E9:1A:F6:08:70:8C:51:F9:AE:5B:CB:CA:F0:D3:2E
            X509v3 Authority Key Identifier: 
                keyid:DD:53:9E:8A:84:3B:CC:28:B4:5C:93:38:0B:7B:D2:6A:C5:49:F3:CF

    Signature Algorithm: sha256WithRSAEncryption
         28:18:d4:6d:7c:20:a3:01:da:d4:04:c0:90:e4:26:8c:88:58:
         f0:d2:88:fc:28:23:63:70:85:dc:ed:17:39:89:93:60:fc:8f:
         c0:7a:91:38:0e:9f:9b:8b:1e:9c:13:30:f6:2b:ca:9a:63:cf:
         88:12:84:57:91:ff:ce:93:38:c0:20:96:75:a4:41:01:42:db:
         57:fd:88:2a:79:0b:09:20:44:13:da:da:f8:73:c5:65:d3:6d:
         51:e7:b8:7f:b4:2d:33:a9:87:d8:2a:a8:54:21:5a:94:c9:56:
         6c:07:a1:0d:c5:cc:5c:79:1e:da:b4:eb:ab:05:1a:c8:2d:1f:
         94:02:7a:b4:54:6c:d1:5b:20:c3:ab:bb:01:44:ed:09:c9:18:
         b8:ca:db:65:56:95:a0:de:2a:53:41:75:a8:14:d2:19:3d:48:
         5b:25:f7:fc:36:f7:1e:5a:8d:00:56:17:61:50:38:ac:ea:f8:
         bc:93:73:e0:40:43:82:9e:53:36:e5:0a:26:b4:20:35:01:31:
         91:ed:45:fd:7c:0d:97:b5:6c:28:94:16:75:22:17:72:ea:f4:
         df:b6:ae:33:c8:24:2d:24:ac:3f:c3:e1:8b:b3:f6:25:43:27:
         71:e9:5d:11:13:d8:74:4a:7a:ef:06:71:75:e1:be:4f:7b:79:
         4a:83:e7:b3
-----BEGIN CERTIFICATE-----
MIID2TCCAsGgAwIBAgIBBTANBgkqhkiG9w0BAQsFADBgMQswCQYDVQQGEwJHQjET
MBEGA1UECAwKRGVyYnlzaGlyZTEVMBMGA1UECgwMUGFobyBQcm9qZWN0MRAwDgYD
VQQLDAdUZXN0aW5nMRMwEQYDVQQDDApTaWduaW5nIENBMCAXDTI0MDcwMjEyNDEz
MFoYDzMwMjMxMTAzMTI0MTMwWjCBgDELMAkGA1UEBhMCR0IxGDAWBgNVBAgMD05v
dHRpbmdoYW1zaGlyZTETMBEGA1UEBwwKTm90dGluZ2hhbTEPMA0GA1UECgwGU2Vy
dmVyMRMwEQYDVQQLDApQcm9kdWN0aW9uMRwwGgYDVQQDDBN0ZXN0IGNsaWVudCBy
ZXZva2VkMIIBIjANBgkqhkiG9w0BAQEFAAOCAQ8AMIIBCgKCAQEAyKFs96E7btHG
9MwLUrgQuZxMlLbjnu4GyT6shIcHvKPQ8Jb/vtYq9/2pmlVFMyhqlmzjcaDVidQh
zss/cs1eBzy/ygHHWnKDPwBTgdYPcPYmGiTANZ+G4bCfag/A/ziKNpiVMSkQbaWb
p0MCcf9pGqqWh4adp3T933FpFtaEvBFHiQOawReAireK72i8DaguyCdTGyanKvAx
hfZZRZUBK+xazxbgPrqEIimSAnJA3qzAWFSy+4XvnskdNAxvg44+N9mPb69Ebfxf
k6Oclbn/kfnxtEHFKe/33076muUMR3kboX2jRo0Qwvak+mkFz8N+di5MAHOHMT0K
dmlBd7ZXXQIDAQABo3sweTAJBgNVHRMEAjAAMCwGCWCGSAGG+EIBDQQfFh1PcGVu
U1NMIEdlbmVyYXRlZCBDZXJ0aWZpY2F0ZTAdBgNVHQ4EFgQUzXk6kpHpGvYIcIxR
+a5by8rw0y4wHwYDVR0jBBgwFoAU3VOeioQ7zCi0XJM4C3vSasVJ888wDQYJKoZI
hvcNAQELBQADggEBACgY1G18IKMB2tQEwJDkJoyIWPDSiPwoI2NwhdztFzmJk2D8
j8B6kTgOn5uLHpwTMPYryppjz4gShFeR/86TOMAglnWkQQFC21f9iCp5CwkgRBPa
2vhzxWXTbVHnuH+0LTOph9gqqFQhWpTJVmwHoQ3FzFx5Htq066sFGsgtH5QCerRU
bNFbIMOruwFE7QnJGLjK22VWlaDeKlNBdagU0hk9SFsl9/w29x5ajQBWF2FQOKzq
+LyTc+BAQ4KeUzblCia0IDUBMZHtRf18DZe1bCiUFnUiF3Lq9N+2rjPIJC0krD/D
4Yuz9iVDJ3HpXRET2HRKeu8GcXXhvk97eUqD57M=
-----END CERTIFICATE-----
