Certificate:
    Data:
        Version: 3 (0x2)
        Serial Number: 3 (0x3)
        Signature Algorithm: sha256WithRSAEncryption
        Issuer: C=GB, ST=Derbyshire, O=Paho Project, OU=Testing, CN=Signing CA
        Validity
            Not Before: Aug 20 00:00:00 2012 GMT
            Not After : Aug 21 00:00:00 2012 GMT
        Subject: C=GB, ST=Nottinghamshire, L=Nottingham, O=Server, OU=Production, CN=test client expired
        Subject Public Key Info:
            Public Key Algorithm: rsaEncryption
                RSA Public-Key: (2048 bit)
                Modulus:
                    00:b2:2f:a5:43:b2:c7:bb:39:e8:26:54:0c:34:9f:
                    f0:0a:cc:e9:d0:e0:a2:76:b7:e1:d3:fc:4a:41:8d:
                    03:ae:b2:f5:87:20:37:12:5c:82:d2:54:d7:19:4e:
                    8d:0a:b1:58:94:67:6a:52:ee:b9:15:b7:01:07:a4:
                    f3:01:93:15:46:f0:98:de:93:d9:85:a3:36:03:1c:
                    18:89:cc:78:63:5a:56:97:77:f3:d8:44:0d:66:5f:
                    b6:db:1f:03:db:d4:65:eb:82:b1:4c:8e:c0:cb:c5:
                    ff:6f:97:eb:a2:c1:bc:77:39:1b:2f:e6:5c:8d:57:
                    4b:eb:a7:4d:59:17:10:61:0d:9a:f9:ad:8b:fb:f0:
                    5f:84:65:b8:52:ea:4d:4b:1f:ed:67:e8:01:f1:f5:
                    ef:24:de:9f:67:8e:ad:f6:9d:f8:75:00:73:88:cf:
                    9f:ef:0e:a7:2f:20:2f:74:00:90:35:d4:1c:b6:bd:
                    d2:33:7c:12:80:45:ec:89:b5:2d:9c:a6:dc:ae:66:
                    dc:61:7b:e7:52:2b:ed:93:69:7e:91:58:00:ff:b3:
                    b5:be:ce:cd:e2:6f:81:95:d0:71:90:70:21:4a:d3:
                    bc:3f:81:82:b9:01:e8:6a:d9:f8:fc:52:d6:84:26:
                    62:ca:4c:e0:26:bb:4b:6a:d0:c3:f3:67:92:45:5d:
                    9f:01
                Exponent: 65537 (0x10001)
        X509v3 extensions:
            X509v3 Basic Constraints: 
                CA:FALSE
            Netscape Comment: 
                OpenSSL Generated Certificate
            X509v3 Subject Key Identifier: 
                13:69:17:A2:F4:81:04:2B:4C:61:20:18:A2:15:C5:26:57:39:AD:22
            X509v3 Authority Key Identifier: 
                keyid:DD:53:9E:8A:84:3B:CC:28:B4:5C:93:38:0B:7B:D2:6A:C5:49:F3:CF

    Signature Algorithm: sha256WithRSAEncryption
         a8:fd:c5:01:0d:bf:d5:ee:a6:9a:fa:b1:4a:dd:99:9c:3c:d2:
         2d:5b:18:40:ef:9d:79:e3:d3:a9:af:a5:4e:93:1d:45:24:35:
         a6:cf:0d:c8:95:55:a3:33:e8:80:79:72:90:2f:a2:55:1e:ed:
         d3:0e:f6:4c:a8:cf:d4:43:c5:f4:77:fc:84:fb:01:7f:b1:43:
         73:af:2e:c5:8a:0b:47:cb:2c:40:9f:6b:f4:fb:f8:ab:12:ed:
         32:79:07:51:db:38:b9:c9:8e:a5:d0:6b:c1:43:9a:5d:b9:82:
         d3:d9:be:32:72:b4:45:0c:39:b2:1e:41:5f:58:41:9c:5d:d7:
         c8:db:16:fc:89:b7:7a:de:50:1a:d9:84:d4:e1:2b:3b:06:ff:
         74:df:bc:bf:d8:7f:92:4b:05:13:5c:ea:0f:90:00:36:91:40:
         bd:7c:ce:8f:c7:ee:dd:79:19:a5:34:f8:bf:2b:f3:f7:f7:22:
         34:4f:e2:dd:e4:bb:d1:20:fc:f3:12:53:5b:68:fc:9c:62:78:
         33:23:cb:eb:86:d8:c9:45:05:81:17:8f:f8:c6:7b:ba:0f:f6:
         55:06:3c:f8:fd:5b:38:a2:5c:ee:ef:39:bb:c1:ca:f7:42:5f:
         99:91:67:6b:88:f3:39:3b:ba:d9:a9:e2:d7:c1:85:7b:fb:f5:
         4a:89:c5:fa
-----BEGIN CERTIFICATE-----
MIID1zCCAr+gAwIBAgIBAzANBgkqhkiG9w0BAQsFADBgMQswCQYDVQQGEwJHQjET
MBEGA1UECAwKRGVyYnlzaGlyZTEVMBMGA1UECgwMUGFobyBQcm9qZWN0MRAwDgYD
VQQLDAdUZXN0aW5nMRMwEQYDVQQDDApTaWduaW5nIENBMB4XDTEyMDgyMDAwMDAw
MFoXDTEyMDgyMTAwMDAwMFowgYAxCzAJBgNVBAYTAkdCMRgwFgYDVQQIDA9Ob3R0
aW5naGFtc2hpcmUxEzARBgNVBAcMCk5vdHRpbmdoYW0xDzANBgNVBAoMBlNlcnZl
cjETMBEGA1UECwwKUHJvZHVjdGlvbjEcMBoGA1UEAwwTdGVzdCBjbGllbnQgZXhw
aXJlZDCCASIwDQYJKoZIhvcNAQEBBQADggEPADCCAQoCggEBALIvpUOyx7s56CZU
DDSf8ArM6dDgona34dP8SkGNA66y9YcgNxJcgtJU1xlOjQqxWJRnalLuuRW3AQek
8wGTFUbwmN6T2YWjNgMcGInMeGNaVpd389hEDWZfttsfA9vUZeuCsUyOwMvF/2+X
66LBvHc5Gy/mXI1XS+unTVkXEGENmvmti/vwX4RluFLqTUsf7WfoAfH17yTen2eO
rfad+HUAc4jPn+8Opy8gL3QAkDXUHLa90jN8EoBF7Im1LZym3K5m3GF751Ir7ZNp
fpFYAP+ztb7OzeJvgZXQcZBwIUrTvD+BgrkB6GrZ+PxS1oQmYspM4Ca7S2rQw/Nn
kkVdnwECAwEAAaN7MHkwCQYDVR0TBAIwADAsBglghkgBhvhCAQ0EHxYdT3BlblNT
TCBHZW5lcmF0ZWQgQ2VydGlmaWNhdGUwHQYDVR0OBBYEFBNpF6L0gQQrTGEgGKIV
xSZXOa0iMB8GA1UdIwQYMBaAFN1TnoqEO8wotFyTOAt70mrFSfPPMA0GCSqGSIb3
DQEBCwUAA4IBAQCo/cUBDb/V7qaa+rFK3ZmcPNItWxhA751549Opr6VOkx1FJDWm
zw3IlVWjM+iAeXKQL6JVHu3TDvZMqM/UQ8X0d/yE+wF/sUNzry7FigtHyyxAn2v0
+/irEu0yeQdR2zi5yY6l0GvBQ5pduYLT2b4ycrRFDDmyHkFfWEGcXdfI2xb8ibd6
3lAa2YTU4Ss7Bv9037y/2H+SSwUTXOoPkAA2kUC9fM6Px+7deRmlNPi/K/P39yI0
T+Ld5LvRIPzzElNbaPycYngzI8vrhtjJRQWBF4/4xnu6D/ZVBjz4/Vs4olzu7zm7
wcr3Ql+ZkWdriPM5O7rZqeLXwYV7+/VKicX6
-----END CERTIFICATE-----
