Certificate:
    Data:
        Version: 3 (0x2)
        Serial Number: 3 (0x3)
        Signature Algorithm: sha256WithRSAEncryption
        Issuer: C=GB, ST=Derbyshire, O=Paho Project, OU=Testing, CN=Signing CA
        Validity
            Not Before: Aug 20 00:00:00 2012 GMT
            Not After : Aug 21 00:00:00 2012 GMT
        Subject: C=GB, ST=Nottinghamshire, L=Nottingham, O=Server, OU=Production, CN=test client expired
        Subject Public Key Info:
            Public Key Algorithm: rsaEncryption
                RSA Public-Key: (2048 bit)
                Modulus:
                    00:d0:58:ed:ad:44:b4:f8:30:16:27:d9:b4:2c:b4:
                    24:67:9a:19:fe:32:04:0d:9a:7e:75:97:12:d6:2c:
                    d4:97:33:fb:30:8c:ef:a2:b1:ef:e5:92:d6:56:05:
                    75:c8:19:82:92:4e:4b:13:8e:25:90:b9:21:72:f4:
                    a4:bf:7a:e2:0f:75:52:08:04:4c:e8:6a:35:7e:7d:
                    78:d9:b8:f7:2b:3d:8e:4e:b5:f3:7a:9a:06:10:50:
                    ca:95:63:2c:bd:3a:89:d0:8a:84:12:32:9b:00:a7:
                    25:33:70:d2:18:0a:43:94:12:62:e7:77:db:b8:0f:
                    dc:23:48:95:5c:77:c6:11:4f:0f:d6:6e:73:59:7c:
                    ed:6a:fd:ba:24:f0:b2:59:c3:a2:16:65:ad:19:7f:
                    92:87:8c:ea:b5:e5:0f:26:f8:b1:74:98:c3:fd:ed:
                    4d:74:d0:58:ce:d9:9c:24:34:9b:75:79:25:d0:aa:
                    6c:03:03:0c:3a:4a:4c:9a:36:50:ab:55:74:1e:8b:
                    de:41:a7:14:b9:57:ee:8b:31:90:5c:00:af:31:9d:
                    e0:55:07:8d:05:ed:c9:5f:e1:79:b7:96:be:d9:5b:
                    cf:a7:5c:cd:48:fc:bd:a4:34:bf:e0:49:d5:25:60:
                    7a:4c:32:37:97:e4:f8:64:24:a6:79:c1:62:8d:93:
                    52:53
                Exponent: 65537 (0x10001)
        X509v3 extensions:
            X509v3 Basic Constraints: 
                CA:FALSE
            Netscape Comment: 
                OpenSSL Generated Certificate
            X509v3 Subject Key Identifier: 
                61:62:90:E6:BB:8A:BB:06:6C:8A:66:9F:A5:C7:85:12:43:5C:94:6F
            X509v3 Authority Key Identifier: 
                keyid:C2:8F:09:9B:D5:F1:BA:C4:74:5E:97:50:BB:86:9D:A1:F1:FA:C4:36

    Signature Algorithm: sha256WithRSAEncryption
         8d:7b:2a:16:2a:2e:50:db:5d:6e:20:ec:4e:5f:2e:d0:f4:9a:
         a9:c8:b3:f0:73:02:9f:2f:32:a2:2a:a5:a7:83:1e:e3:36:6b:
         99:d2:4c:6a:ea:09:0b:73:5e:7f:69:da:50:69:5b:dc:0f:4d:
         59:ec:d2:c7:ca:0e:a8:55:c0:5a:f6:67:e8:a0:0b:4b:0a:9a:
         a8:1f:b3:f0:e7:e6:10:4b:db:1b:5a:18:7a:ee:52:16:93:2e:
         70:1c:4f:7d:c6:eb:4a:11:35:92:db:8c:f0:86:1b:f7:64:4f:
         f5:1b:31:d6:da:89:97:c6:46:4b:c9:df:7f:80:c4:77:5e:c6:
         a8:b7:47:12:48:b5:2b:f2:73:80:e4:dd:5b:cf:a1:20:3c:3b:
         b3:37:34:d1:72:37:e1:a6:06:d4:22:cc:65:d3:af:0f:aa:ea:
         ad:dd:e9:21:c5:1e:86:81:94:33:6c:ca:68:c2:48:ed:ea:0e:
         c4:be:38:a5:4f:bb:0b:2b:7f:e7:63:e1:9f:e1:c8:6a:c4:4c:
         7b:43:a2:56:c9:ff:56:88:2e:e3:4f:d6:d0:69:59:96:6e:26:
         d9:3d:f3:62:4e:c3:a3:79:8f:f9:e4:82:11:52:f0:a2:c7:79:
         b6:54:50:21:31:e6:4a:8c:2c:df:23:e9:2e:50:6e:9d:a8:61:
         5b:e1:cb:51
-----BEGIN CERTIFICATE-----
MIID1zCCAr+gAwIBAgIBAzANBgkqhkiG9w0BAQsFADBgMQswCQYDVQQGEwJHQjET
MBEGA1UECAwKRGVyYnlzaGlyZTEVMBMGA1UECgwMUGFobyBQcm9qZWN0MRAwDgYD
VQQLDAdUZXN0aW5nMRMwEQYDVQQDDApTaWduaW5nIENBMB4XDTEyMDgyMDAwMDAw
MFoXDTEyMDgyMTAwMDAwMFowgYAxCzAJBgNVBAYTAkdCMRgwFgYDVQQIDA9Ob3R0
aW5naGFtc2hpcmUxEzARBgNVBAcMCk5vdHRpbmdoYW0xDzANBgNVBAoMBlNlcnZl
cjETMBEGA1UECwwKUHJvZHVjdGlvbjEcMBoGA1UEAwwTdGVzdCBjbGllbnQgZXhw
aXJlZDCCASIwDQYJKoZIhvcNAQEBBQADggEPADCCAQoCggEBANBY7a1EtPgwFifZ
tCy0JGeaGf4yBA2afnWXEtYs1Jcz+zCM76Kx7+WS1lYFdcgZgpJOSxOOJZC5IXL0
pL964g91UggETOhqNX59eNm49ys9jk6183qaBhBQypVjLL06idCKhBIymwCnJTNw
0hgKQ5QSYud327gP3CNIlVx3xhFPD9Zuc1l87Wr9uiTwslnDohZlrRl/koeM6rXl
Dyb4sXSYw/3tTXTQWM7ZnCQ0m3V5JdCqbAMDDDpKTJo2UKtVdB6L3kGnFLlX7osx
kFwArzGd4FUHjQXtyV/hebeWvtlbz6dczUj8vaQ0v+BJ1SVgekwyN5fk+GQkpnnB
Yo2TUlMCAwEAAaN7MHkwCQYDVR0TBAIwADAsBglghkgBhvhCAQ0EHxYdT3BlblNT
TCBHZW5lcmF0ZWQgQ2VydGlmaWNhdGUwHQYDVR0OBBYEFGFikOa7irsGbIpmn6XH
hRJDXJRvMB8GA1UdIwQYMBaAFMKPCZvV8brEdF6XULuGnaHx+sQ2MA0GCSqGSIb3
DQEBCwUAA4IBAQCNeyoWKi5Q211uIOxOXy7Q9JqpyLPwcwKfLzKiKqWngx7jNmuZ
0kxq6gkLc15/adpQaVvcD01Z7NLHyg6oVcBa9mfooAtLCpqoH7Pw5+YQS9sbWhh6
7lIWky5wHE99xutKETWS24zwhhv3ZE/1GzHW2omXxkZLyd9/gMR3Xsaot0cSSLUr
8nOA5N1bz6EgPDuzNzTRcjfhpgbUIsxl068Pquqt3ekhxR6GgZQzbMpowkjt6g7E
vjilT7sLK3/nY+Gf4chqxEx7Q6JWyf9WiC7jT9bQaVmWbibZPfNiTsOjeY/55IIR
UvCix3m2VFAhMeZKjCzfI+kuUG6dqGFb4ctR
-----END CERTIFICATE-----
