Certificate:
    Data:
        Version: 3 (0x2)
        Serial Number: 4 (0x4)
        Signature Algorithm: sha256WithRSAEncryption
        Issuer: C=GB, ST=Derbyshire, O=Paho Project, OU=Testing, CN=Signing CA
        Validity
            Not Before: Jul  2 12:41:30 2024 GMT
            Not After : Nov  3 12:41:30 3023 GMT
        Subject: C=GB, ST=Nottinghamshire, L=Nottingham, O=Server, OU=Production, CN=test client with password
        Subject Public Key Info:
            Public Key Algorithm: rsaEncryption
                RSA Public-Key: (2048 bit)
                Modulus:
                    00:dc:e1:e2:9f:2b:4d:19:c8:da:45:52:7c:02:50:
                    27:8d:5b:9d:e1:8f:99:24:13:a1:3c:33:71:89:63:
                    74:81:f1:0f:ac:68:2f:bc:75:af:c3:03:04:04:c6:
                    1d:69:a1:e5:65:18:c3:b8:da:3d:fe:e9:f3:56:5e:
                    f2:f3:f5:96:c1:12:52:fc:dd:ba:95:73:25:63:1b:
                    83:f0:ad:ee:d0:e9:8b:a1:dc:be:e9:ea:2f:5f:e1:
                    a1:fd:8f:16:3d:44:fc:9c:13:df:8f:08:d7:03:59:
                    52:3d:9e:f0:5f:c9:f6:ec:56:7c:4a:88:c3:5b:42:
                    8b:8c:d8:ef:ea:60:11:0b:59:b3:7c:60:ba:c4:c6:
                    b6:32:19:41:02:af:24:3c:2f:68:28:65:97:63:f4:
                    46:c2:57:62:69:56:0e:8f:bd:96:e2:f9:a4:aa:4c:
                    f8:3e:2e:bc:f9:fa:7d:2e:2e:e4:6e:b7:a5:04:5c:
                    4c:e0:a8:51:7c:ad:0a:6f:2a:bc:4f:86:79:24:c8:
                    4d:57:ee:d0:ff:de:70:4a:07:72:ca:c3:c5:b2:a7:
                    1e:ac:d8:be:8a:0d:77:0d:14:1c:75:a6:2f:1c:7f:
                    a5:32:38:0a:33:ad:e1:45:04:dc:f2:a6:aa:80:c7:
                    d2:c9:1b:63:0c:3a:74:37:34:9f:7e:65:1d:2a:ba:
                    b5:bf
                Exponent: 65537 (0x10001)
        X509v3 extensions:
            X509v3 Basic Constraints: 
                CA:FALSE
            Netscape Comment: 
                OpenSSL Generated Certificate
            X509v3 Subject Key Identifier: 
                3D:33:87:6B:EC:FB:4A:87:ED:E3:51:9C:4A:12:E8:AC:E9:E4:28:8E
            X509v3 Authority Key Identifier: 
                keyid:DD:53:9E:8A:84:3B:CC:28:B4:5C:93:38:0B:7B:D2:6A:C5:49:F3:CF

    Signature Algorithm: sha256WithRSAEncryption
         14:3e:9f:9b:78:a6:a5:c5:f6:9f:e6:91:b1:46:df:99:18:70:
         1c:3f:4c:44:37:05:ea:6e:75:10:e5:28:37:9a:0b:c7:bb:9d:
         3c:80:c4:a5:7d:b3:a5:e2:0b:cc:fb:ef:a5:2c:7d:a3:80:72:
         30:9b:77:a9:0c:b2:8b:78:cf:e9:85:b9:d4:29:70:94:06:46:
         1f:69:94:2e:69:78:2b:f6:12:aa:30:06:dd:68:f2:cb:4e:10:
         b2:61:23:6a:40:2e:96:09:9a:45:06:05:90:31:8d:97:c0:58:
         e1:9d:13:b2:0e:bc:d0:bc:43:46:be:3f:7f:9e:3a:22:8a:da:
         9a:0a:f5:5e:1f:53:f0:0b:51:85:02:e8:e6:c1:17:47:03:74:
         54:f0:fd:6f:a6:8c:d3:dd:16:ff:a1:8f:d4:5f:0f:2a:b9:4c:
         cd:c2:c0:f4:01:82:7c:dc:ea:72:dd:27:1d:a2:80:15:4a:5b:
         10:6b:9e:00:30:cd:94:e9:4c:15:78:01:2f:df:f3:28:f3:5c:
         4a:b1:43:41:f9:20:f0:6e:e0:94:40:83:fd:5b:1e:0a:2f:b5:
         7a:5e:5a:42:4b:aa:01:5d:6c:8b:53:db:7b:b2:8d:13:cf:9c:
         86:6f:03:53:1f:0c:db:77:6d:04:fc:c5:a0:da:da:aa:29:42:
         8e:c4:5c:29
-----BEGIN CERTIFICATE-----
MIID3zCCAsegAwIBAgIBBDANBgkqhkiG9w0BAQsFADBgMQswCQYDVQQGEwJHQjET
MBEGA1UECAwKRGVyYnlzaGlyZTEVMBMGA1UECgwMUGFobyBQcm9qZWN0MRAwDgYD
VQQLDAdUZXN0aW5nMRMwEQYDVQQDDApTaWduaW5nIENBMCAXDTI0MDcwMjEyNDEz
MFoYDzMwMjMxMTAzMTI0MTMwWjCBhjELMAkGA1UEBhMCR0IxGDAWBgNVBAgMD05v
dHRpbmdoYW1zaGlyZTETMBEGA1UEBwwKTm90dGluZ2hhbTEPMA0GA1UECgwGU2Vy
dmVyMRMwEQYDVQQLDApQcm9kdWN0aW9uMSIwIAYDVQQDDBl0ZXN0IGNsaWVudCB3
aXRoIHBhc3N3b3JkMIIBIjANBgkqhkiG9w0BAQEFAAOCAQ8AMIIBCgKCAQEA3OHi
nytNGcjaRVJ8AlAnjVud4Y+ZJBOhPDNxiWN0gfEPrGgvvHWvwwMEBMYdaaHlZRjD
uNo9/unzVl7y8/WWwRJS/N26lXMlYxuD8K3u0OmLody+6eovX+Gh/Y8WPUT8nBPf
jwjXA1lSPZ7wX8n27FZ8SojDW0KLjNjv6mARC1mzfGC6xMa2MhlBAq8kPC9oKGWX
Y/RGwldiaVYOj72W4vmkqkz4Pi68+fp9Li7kbrelBFxM4KhRfK0Kbyq8T4Z5JMhN
V+7Q/95wSgdyysPFsqcerNi+ig13DRQcdaYvHH+lMjgKM63hRQTc8qaqgMfSyRtj
DDp0NzSffmUdKrq1vwIDAQABo3sweTAJBgNVHRMEAjAAMCwGCWCGSAGG+EIBDQQf
Fh1PcGVuU1NMIEdlbmVyYXRlZCBDZXJ0aWZpY2F0ZTAdBgNVHQ4EFgQUPTOHa+z7
Soft41GcShLorOnkKI4wHwYDVR0jBBgwFoAU3VOeioQ7zCi0XJM4C3vSasVJ888w
DQYJKoZIhvcNAQELBQADggEBABQ+n5t4pqXF9p/mkbFG35kYcBw/TEQ3BepudRDl
KDeaC8e7nTyAxKV9s6XiC8z776UsfaOAcjCbd6kMsot4z+mFudQpcJQGRh9plC5p
eCv2EqowBt1o8stOELJhI2pALpYJmkUGBZAxjZfAWOGdE7IOvNC8Q0a+P3+eOiKK
2poK9V4fU/ALUYUC6ObBF0cDdFTw/W+mjNPdFv+hj9RfDyq5TM3CwPQBgnzc6nLd
Jx2igBVKWxBrngAwzZTpTBV4AS/f8yjzXEqxQ0H5IPBu4JRAg/1bHgovtXpeWkJL
qgFdbItT23uyjRPPnIZvA1MfDNt3bQT8xaDa2qopQo7EXCk=
-----END CERTIFICATE-----
