Certificate:
    Data:
        Version: 3 (0x2)
        Serial Number: 1 (0x1)
        Signature Algorithm: sha256WithRSAEncryption
        Issuer: C=GB, ST=Derbyshire, O=Paho Project, OU=Testing, CN=Signing CA
        Validity
            Not Before: Jul  2 12:41:29 2024 GMT
            Not After : Nov  3 12:41:29 3023 GMT
        Subject: C=GB, ST=Nottinghamshire, L=Nottingham, O=Server, OU=Production, CN=localhost
        Subject Public Key Info:
            Public Key Algorithm: rsaEncryption
                RSA Public-Key: (2048 bit)
                Modulus:
                    00:d1:1c:d1:9c:c1:b5:8d:c0:70:07:45:67:80:b5:
                    25:81:7c:19:d6:77:db:c5:26:53:0a:28:5b:fa:ce:
                    5c:2f:75:ce:df:d0:28:26:99:ca:03:10:f0:52:bf:
                    36:72:25:36:14:dc:6c:82:ab:58:39:18:8e:b9:b9:
                    46:42:d1:e7:80:cb:0b:99:64:39:95:d4:ad:1a:61:
                    87:37:ea:56:80:89:dc:0d:73:2f:a5:5d:33:7e:5a:
                    7b:52:53:2a:fb:e7:52:98:b5:8e:8e:be:c5:19:30:
                    30:2d:3a:23:5e:c0:32:3f:a3:a8:5b:e5:c5:85:41:
                    81:eb:96:40:70:ea:39:e4:22:08:8b:a5:4e:71:4c:
                    cf:f7:02:cc:cf:c8:2c:6a:b9:4b:69:30:31:b0:1c:
                    96:3e:e9:ab:f9:22:34:f9:b5:d3:47:40:bf:8e:cb:
                    a0:43:05:b8:e0:3c:3e:6e:2e:c5:48:80:89:13:93:
                    a6:e0:4d:6c:52:d5:70:91:63:81:8b:b1:ca:29:1e:
                    50:99:c7:5e:2e:b3:7f:a4:02:21:83:56:32:4f:3a:
                    15:ce:30:32:1c:e3:5e:f3:0c:ab:6c:48:d2:51:af:
                    eb:54:a2:29:e2:40:53:86:b4:d1:05:07:31:02:9c:
                    dd:fe:62:1f:f4:7d:34:2e:c2:f8:b5:c1:0d:b4:43:
                    33:37
                Exponent: 65537 (0x10001)
        X509v3 extensions:
            X509v3 Basic Constraints: 
                CA:FALSE
            Netscape Comment: 
                OpenSSL Generated Certificate
            X509v3 Subject Key Identifier: 
                02:C6:56:48:0F:C3:D5:28:CA:F0:FB:A6:01:8D:26:2B:92:E4:D3:AE
            X509v3 Authority Key Identifier: 
                keyid:DD:53:9E:8A:84:3B:CC:28:B4:5C:93:38:0B:7B:D2:6A:C5:49:F3:CF

    Signature Algorithm: sha256WithRSAEncryption
         9a:45:58:2a:4a:4b:de:0c:7b:ef:71:ef:59:71:23:0f:1d:79:
         75:f7:a6:98:61:cc:3b:06:24:9c:d0:66:d9:b0:69:19:87:b5:
         40:55:ed:14:80:f1:83:96:c6:ff:65:94:7a:04:5d:33:88:f0:
         0f:bf:70:48:30:fb:c3:fb:42:cd:e3:98:a3:d3:94:37:2b:16:
         ce:cb:62:22:6e:fc:b8:95:50:d3:9c:e2:a5:e8:00:52:fa:b8:
         81:de:22:5f:38:96:d6:b0:ad:97:cb:42:ab:ae:91:48:4c:b8:
         c8:52:59:90:a7:1a:2d:cc:22:8b:56:b6:83:66:3b:33:53:12:
         f6:b2:c2:ab:42:7b:fc:cf:5e:56:e5:cf:4b:bc:fd:a2:5a:a0:
         e8:61:84:24:c4:d1:22:37:c7:f2:44:3e:99:3c:7f:fe:4a:52:
         6f:20:60:20:b4:cc:c7:6c:fa:67:d9:dd:97:ad:7e:e0:de:5f:
         44:b9:c3:10:08:c3:40:40:b1:4a:8f:b2:93:ae:6b:cc:36:39:
         93:a5:a3:6d:94:53:44:0a:44:62:ea:20:2e:c0:ad:38:5f:c4:
         2b:d2:f0:0a:f3:da:11:b6:c5:c1:6e:e8:79:91:7c:e3:ae:31:
         ab:ff:00:e9:19:87:88:f5:ee:f3:db:64:c1:8c:b8:dd:6e:55:
         2a:c3:28:10
-----BEGIN CERTIFICATE-----
MIIDzjCCAragAwIBAgIBATANBgkqhkiG9w0BAQsFADBgMQswCQYDVQQGEwJHQjET
MBEGA1UECAwKRGVyYnlzaGlyZTEVMBMGA1UECgwMUGFobyBQcm9qZWN0MRAwDgYD
VQQLDAdUZXN0aW5nMRMwEQYDVQQDDApTaWduaW5nIENBMCAXDTI0MDcwMjEyNDEy
OVoYDzMwMjMxMTAzMTI0MTI5WjB2MQswCQYDVQQGEwJHQjEYMBYGA1UECAwPTm90
dGluZ2hhbXNoaXJlMRMwEQYDVQQHDApOb3R0aW5naGFtMQ8wDQYDVQQKDAZTZXJ2
ZXIxEzARBgNVBAsMClByb2R1Y3Rpb24xEjAQBgNVBAMMCWxvY2FsaG9zdDCCASIw
DQYJKoZIhvcNAQEBBQADggEPADCCAQoCggEBANEc0ZzBtY3AcAdFZ4C1JYF8GdZ3
28UmUwooW/rOXC91zt/QKCaZygMQ8FK/NnIlNhTcbIKrWDkYjrm5RkLR54DLC5lk
OZXUrRphhzfqVoCJ3A1zL6VdM35ae1JTKvvnUpi1jo6+xRkwMC06I17AMj+jqFvl
xYVBgeuWQHDqOeQiCIulTnFMz/cCzM/ILGq5S2kwMbAclj7pq/kiNPm100dAv47L
oEMFuOA8Pm4uxUiAiROTpuBNbFLVcJFjgYuxyikeUJnHXi6zf6QCIYNWMk86Fc4w
MhzjXvMMq2xI0lGv61SiKeJAU4a00QUHMQKc3f5iH/R9NC7C+LXBDbRDMzcCAwEA
AaN7MHkwCQYDVR0TBAIwADAsBglghkgBhvhCAQ0EHxYdT3BlblNTTCBHZW5lcmF0
ZWQgQ2VydGlmaWNhdGUwHQYDVR0OBBYEFALGVkgPw9UoyvD7pgGNJiuS5NOuMB8G
A1UdIwQYMBaAFN1TnoqEO8wotFyTOAt70mrFSfPPMA0GCSqGSIb3DQEBCwUAA4IB
AQCaRVgqSkveDHvvce9ZcSMPHXl196aYYcw7BiSc0GbZsGkZh7VAVe0UgPGDlsb/
ZZR6BF0ziPAPv3BIMPvD+0LN45ij05Q3KxbOy2Iibvy4lVDTnOKl6ABS+riB3iJf
OJbWsK2Xy0KrrpFITLjIUlmQpxotzCKLVraDZjszUxL2ssKrQnv8z15W5c9LvP2i
WqDoYYQkxNEiN8fyRD6ZPH/+SlJvIGAgtMzHbPpn2d2XrX7g3l9EucMQCMNAQLFK
j7KTrmvMNjmTpaNtlFNECkRi6iAuwK04X8Qr0vAK89oRtsXBbuh5kXzjrjGr/wDp
GYeI9e7z22TBjLjdblUqwygQ
-----END CERTIFICATE-----
