Certificate:
    Data:
        Version: 3 (0x2)
        Serial Number: 1 (0x1)
        Signature Algorithm: sha256WithRSAEncryption
        Issuer: C=GB, ST=Derbyshire, O=Paho Project, OU=Testing, CN=Signing CA
        Validity
            Not Before: Aug 20 00:00:00 2012 GMT
            Not After : Aug 21 00:00:00 2012 GMT
        Subject: C=GB, ST=Nottinghamshire, L=Nottingham, O=Server, OU=Production, CN=localhost
        Subject Public Key Info:
            Public Key Algorithm: rsaEncryption
                RSA Public-Key: (2048 bit)
                Modulus:
                    00:d1:1c:d1:9c:c1:b5:8d:c0:70:07:45:67:80:b5:
                    25:81:7c:19:d6:77:db:c5:26:53:0a:28:5b:fa:ce:
                    5c:2f:75:ce:df:d0:28:26:99:ca:03:10:f0:52:bf:
                    36:72:25:36:14:dc:6c:82:ab:58:39:18:8e:b9:b9:
                    46:42:d1:e7:80:cb:0b:99:64:39:95:d4:ad:1a:61:
                    87:37:ea:56:80:89:dc:0d:73:2f:a5:5d:33:7e:5a:
                    7b:52:53:2a:fb:e7:52:98:b5:8e:8e:be:c5:19:30:
                    30:2d:3a:23:5e:c0:32:3f:a3:a8:5b:e5:c5:85:41:
                    81:eb:96:40:70:ea:39:e4:22:08:8b:a5:4e:71:4c:
                    cf:f7:02:cc:cf:c8:2c:6a:b9:4b:69:30:31:b0:1c:
                    96:3e:e9:ab:f9:22:34:f9:b5:d3:47:40:bf:8e:cb:
                    a0:43:05:b8:e0:3c:3e:6e:2e:c5:48:80:89:13:93:
                    a6:e0:4d:6c:52:d5:70:91:63:81:8b:b1:ca:29:1e:
                    50:99:c7:5e:2e:b3:7f:a4:02:21:83:56:32:4f:3a:
                    15:ce:30:32:1c:e3:5e:f3:0c:ab:6c:48:d2:51:af:
                    eb:54:a2:29:e2:40:53:86:b4:d1:05:07:31:02:9c:
                    dd:fe:62:1f:f4:7d:34:2e:c2:f8:b5:c1:0d:b4:43:
                    33:37
                Exponent: 65537 (0x10001)
        X509v3 extensions:
            X509v3 Basic Constraints: 
                CA:FALSE
            Netscape Comment: 
                OpenSSL Generated Certificate
            X509v3 Subject Key Identifier: 
                02:C6:56:48:0F:C3:D5:28:CA:F0:FB:A6:01:8D:26:2B:92:E4:D3:AE
            X509v3 Authority Key Identifier: 
                keyid:DD:53:9E:8A:84:3B:CC:28:B4:5C:93:38:0B:7B:D2:6A:C5:49:F3:CF

    Signature Algorithm: sha256WithRSAEncryption
         14:db:dd:b6:8d:af:10:bb:28:8f:4f:6a:08:de:b1:aa:57:c9:
         c6:2f:6f:32:b6:41:1b:49:f0:47:00:28:79:3e:75:94:ab:b4:
         60:5f:ee:fc:a3:26:0e:7d:77:ee:63:e0:57:24:0f:13:59:60:
         97:0c:bc:4b:65:84:9e:17:3a:ec:44:63:04:cd:1a:29:eb:9f:
         7f:ea:41:48:2a:d7:dd:0a:fb:6e:86:ab:51:d7:48:a3:40:ed:
         33:05:35:0f:e9:a2:14:1d:5d:d6:fc:68:65:62:dd:02:05:9d:
         47:9a:0e:d9:c1:00:49:0f:b8:ae:eb:40:46:c2:7f:da:cb:5e:
         a0:6a:83:99:61:45:fe:87:9e:e4:d2:c6:af:3e:07:37:f6:cd:
         5d:c4:2b:9e:05:8b:89:4c:8e:d6:d6:1c:1c:11:8d:b4:8d:95:
         ef:84:a1:00:f8:f2:05:df:45:ad:65:06:71:8d:05:01:dc:8d:
         e7:0a:a5:a0:67:7b:62:be:2f:bb:7f:10:96:f2:81:16:00:70:
         19:39:8e:d3:9e:67:f0:a9:c0:cb:9e:da:ef:80:89:7f:d8:21:
         5e:2a:45:db:1e:cf:5b:23:f4:82:0b:16:39:01:fe:48:47:c9:
         2d:bb:52:d6:ef:e9:0f:9d:8d:5a:64:ef:a1:69:12:56:4b:42:
         4e:f8:6b:09
-----BEGIN CERTIFICATE-----
MIIDzDCCArSgAwIBAgIBATANBgkqhkiG9w0BAQsFADBgMQswCQYDVQQGEwJHQjET
MBEGA1UECAwKRGVyYnlzaGlyZTEVMBMGA1UECgwMUGFobyBQcm9qZWN0MRAwDgYD
VQQLDAdUZXN0aW5nMRMwEQYDVQQDDApTaWduaW5nIENBMB4XDTEyMDgyMDAwMDAw
MFoXDTEyMDgyMTAwMDAwMFowdjELMAkGA1UEBhMCR0IxGDAWBgNVBAgMD05vdHRp
bmdoYW1zaGlyZTETMBEGA1UEBwwKTm90dGluZ2hhbTEPMA0GA1UECgwGU2VydmVy
MRMwEQYDVQQLDApQcm9kdWN0aW9uMRIwEAYDVQQDDAlsb2NhbGhvc3QwggEiMA0G
CSqGSIb3DQEBAQUAA4IBDwAwggEKAoIBAQDRHNGcwbWNwHAHRWeAtSWBfBnWd9vF
JlMKKFv6zlwvdc7f0CgmmcoDEPBSvzZyJTYU3GyCq1g5GI65uUZC0eeAywuZZDmV
1K0aYYc36laAidwNcy+lXTN+WntSUyr751KYtY6OvsUZMDAtOiNewDI/o6hb5cWF
QYHrlkBw6jnkIgiLpU5xTM/3AszPyCxquUtpMDGwHJY+6av5IjT5tdNHQL+Oy6BD
BbjgPD5uLsVIgIkTk6bgTWxS1XCRY4GLscopHlCZx14us3+kAiGDVjJPOhXOMDIc
417zDKtsSNJRr+tUoiniQFOGtNEFBzECnN3+Yh/0fTQuwvi1wQ20QzM3AgMBAAGj
ezB5MAkGA1UdEwQCMAAwLAYJYIZIAYb4QgENBB8WHU9wZW5TU0wgR2VuZXJhdGVk
IENlcnRpZmljYXRlMB0GA1UdDgQWBBQCxlZID8PVKMrw+6YBjSYrkuTTrjAfBgNV
HSMEGDAWgBTdU56KhDvMKLRckzgLe9JqxUnzzzANBgkqhkiG9w0BAQsFAAOCAQEA
FNvdto2vELsoj09qCN6xqlfJxi9vMrZBG0nwRwAoeT51lKu0YF/u/KMmDn137mPg
VyQPE1lglwy8S2WEnhc67ERjBM0aKeuff+pBSCrX3Qr7boarUddIo0DtMwU1D+mi
FB1d1vxoZWLdAgWdR5oO2cEASQ+4rutARsJ/2steoGqDmWFF/oee5NLGrz4HN/bN
XcQrngWLiUyO1tYcHBGNtI2V74ShAPjyBd9FrWUGcY0FAdyN5wqloGd7Yr4vu38Q
lvKBFgBwGTmO055n8KnAy57a74CJf9ghXipF2x7PWyP0ggsWOQH+SEfJLbtS1u/p
D52NWmTvoWkSVktCTvhrCQ==
-----END CERTIFICATE-----
