Certificate:
    Data:
        Version: 3 (0x2)
        Serial Number: 2 (0x2)
        Signature Algorithm: sha256WithRSAEncryption
        Issuer: C=GB, ST=Derbyshire, L=Derby, O=Paho Project, OU=Testing, CN=Root CA
        Validity
            Not Before: Jul  2 12:41:29 2024 GMT
            Not After : Nov  3 12:41:29 3023 GMT
        Subject: C=GB, ST=Derbyshire, O=Paho Project, OU=Testing, CN=Alternative Signing CA
        Subject Public Key Info:
            Public Key Algorithm: rsaEncryption
                RSA Public-Key: (2048 bit)
                Modulus:
                    00:a7:01:52:a4:01:6c:1b:95:74:76:5d:aa:df:9e:
                    5b:d8:8d:b7:ba:6c:71:f4:9c:a7:e0:33:f2:6e:55:
                    2e:8f:ee:07:d2:f0:68:67:07:81:36:ef:ad:4b:14:
                    25:cd:97:9e:64:03:d2:c6:c2:f5:de:e5:e7:75:31:
                    a8:49:ae:2a:51:4d:60:8a:09:1c:71:e9:1f:b5:ac:
                    d3:9c:76:26:4d:9c:ec:32:6f:93:9c:07:cd:b8:c5:
                    7a:be:e6:50:91:c9:79:66:48:83:93:85:40:ef:03:
                    cb:22:3d:71:dc:c2:30:1e:74:76:d6:c3:ec:6f:89:
                    c5:4b:a6:56:43:d7:39:e2:34:83:aa:cd:84:01:32:
                    32:e6:58:12:b4:11:a5:46:c5:40:97:f7:73:c7:c8:
                    95:f6:6d:61:ac:d2:c1:98:97:cb:ff:d4:6c:c0:7a:
                    b7:ce:58:9e:2c:a1:1b:cb:9d:a8:58:33:ff:87:78:
                    c0:4a:f9:48:4d:78:2a:a0:a3:b6:5a:52:da:15:1f:
                    bf:44:2f:20:d0:2f:0a:01:0c:0f:a8:f7:e3:b4:0f:
                    9e:e5:6e:a8:67:0b:41:52:18:8f:76:63:6a:21:74:
                    76:1c:5b:e6:99:c5:6a:4f:8d:b1:7a:bb:17:e5:d6:
                    8f:49:ec:a2:9e:0f:0b:64:5e:70:07:88:af:12:34:
                    f6:b9
                Exponent: 65537 (0x10001)
        X509v3 extensions:
            X509v3 Subject Key Identifier: 
                D0:06:30:6D:25:D5:9A:72:5C:EA:76:22:68:67:17:78:96:A4:52:23
            X509v3 Authority Key Identifier: 
                keyid:77:4F:69:A1:02:EB:51:D6:77:29:97:93:72:10:E4:26:F1:2A:54:E4

            X509v3 Basic Constraints: 
                CA:TRUE
    Signature Algorithm: sha256WithRSAEncryption
         13:50:49:89:5b:c6:a8:4c:3e:69:fd:cc:66:d6:6c:0c:8d:f7:
         9e:8e:4c:26:bb:ae:66:f9:69:3f:38:3e:56:4a:31:3c:96:f3:
         ed:c3:7b:ee:70:91:86:54:80:09:99:be:b3:02:c4:7c:5b:79:
         be:80:b5:1d:64:48:25:d1:bf:6c:76:5c:3a:42:6d:07:c6:88:
         6b:f1:6d:bf:d4:62:d2:32:e3:95:64:cd:f0:b9:d1:df:83:7d:
         0d:09:56:fc:17:f6:c0:00:81:36:ff:30:bc:22:bf:ee:05:7d:
         da:66:e3:e4:c3:54:b5:51:bc:9a:b2:fb:0a:be:bf:9b:61:79:
         f8:92:f7:be:4d:0c:30:d9:07:f5:6e:a2:b0:e5:2e:4a:eb:3c:
         49:46:25:90:6b:1d:59:26:17:8b:13:52:0b:05:d5:e6:db:f4:
         16:01:e8:59:85:c6:3c:9f:fb:ca:01:a4:53:e7:97:96:46:c7:
         32:81:61:78:e1:e9:f6:34:45:09:23:96:a1:89:d8:f3:77:d3:
         ab:5a:50:43:66:8f:20:79:0f:37:20:f2:6c:83:91:87:1f:c3:
         14:80:70:85:7f:bb:c3:62:8b:5e:98:39:11:43:04:d5:90:d7:
         e0:38:9f:35:3a:8b:7b:75:86:b0:9f:e0:f3:7d:4f:d6:5d:88:
         4c:32:51:b6
-----BEGIN CERTIFICATE-----
MIIDpjCCAo6gAwIBAgIBAjANBgkqhkiG9w0BAQsFADBtMQswCQYDVQQGEwJHQjET
MBEGA1UECAwKRGVyYnlzaGlyZTEOMAwGA1UEBwwFRGVyYnkxFTATBgNVBAoMDFBh
aG8gUHJvamVjdDEQMA4GA1UECwwHVGVzdGluZzEQMA4GA1UEAwwHUm9vdCBDQTAg
Fw0yNDA3MDIxMjQxMjlaGA8zMDIzMTEwMzEyNDEyOVowbDELMAkGA1UEBhMCR0Ix
EzARBgNVBAgMCkRlcmJ5c2hpcmUxFTATBgNVBAoMDFBhaG8gUHJvamVjdDEQMA4G
A1UECwwHVGVzdGluZzEfMB0GA1UEAwwWQWx0ZXJuYXRpdmUgU2lnbmluZyBDQTCC
ASIwDQYJKoZIhvcNAQEBBQADggEPADCCAQoCggEBAKcBUqQBbBuVdHZdqt+eW9iN
t7pscfScp+Az8m5VLo/uB9LwaGcHgTbvrUsUJc2XnmQD0sbC9d7l53UxqEmuKlFN
YIoJHHHpH7Ws05x2Jk2c7DJvk5wHzbjFer7mUJHJeWZIg5OFQO8DyyI9cdzCMB50
dtbD7G+JxUumVkPXOeI0g6rNhAEyMuZYErQRpUbFQJf3c8fIlfZtYazSwZiXy//U
bMB6t85YniyhG8udqFgz/4d4wEr5SE14KqCjtlpS2hUfv0QvINAvCgEMD6j347QP
nuVuqGcLQVIYj3ZjaiF0dhxb5pnFak+NsXq7F+XWj0nsop4PC2RecAeIrxI09rkC
AwEAAaNQME4wHQYDVR0OBBYEFNAGMG0l1ZpyXOp2ImhnF3iWpFIjMB8GA1UdIwQY
MBaAFHdPaaEC61HWdymXk3IQ5CbxKlTkMAwGA1UdEwQFMAMBAf8wDQYJKoZIhvcN
AQELBQADggEBABNQSYlbxqhMPmn9zGbWbAyN956OTCa7rmb5aT84PlZKMTyW8+3D
e+5wkYZUgAmZvrMCxHxbeb6AtR1kSCXRv2x2XDpCbQfGiGvxbb/UYtIy45VkzfC5
0d+DfQ0JVvwX9sAAgTb/MLwiv+4Ffdpm4+TDVLVRvJqy+wq+v5thefiS975NDDDZ
B/VuorDlLkrrPElGJZBrHVkmF4sTUgsF1ebb9BYB6FmFxjyf+8oBpFPnl5ZGxzKB
YXjh6fY0RQkjlqGJ2PN306taUENmjyB5Dzcg8myDkYcfwxSAcIV/u8Nii16YORFD
BNWQ1+A4nzU6i3t1hrCf4PN9T9ZdiEwyUbY=
-----END CERTIFICATE-----
