Certificate:
    Data:
        Version: 3 (0x2)
        Serial Number: 2 (0x2)
        Signature Algorithm: sha256WithRSAEncryption
        Issuer: C=GB, ST=Derbyshire, L=Derby, O=Paho Project, OU=Testing, CN=Root CA
        Validity
            Not Before: Jul  7 11:14:42 2021 GMT
            Not After : Jul  6 11:14:42 2026 GMT
        Subject: C=GB, ST=Derbyshire, O=Paho Project, OU=Testing, CN=Alternative Signing CA
        Subject Public Key Info:
            Public Key Algorithm: rsaEncryption
                RSA Public-Key: (2048 bit)
                Modulus:
                    00:ca:f5:4f:c2:30:7d:fd:65:75:06:00:22:72:0a:
                    d0:74:1e:00:03:aa:f3:64:1a:d4:d0:25:85:b9:2e:
                    73:72:41:06:12:d9:52:1d:39:11:78:2d:c3:0d:d7:
                    6f:06:05:68:3a:cc:ce:36:8d:a7:3a:a9:31:77:eb:
                    e9:2d:87:00:7e:86:7a:bb:52:c2:02:d7:ef:07:4f:
                    a9:88:91:d6:6e:dd:19:84:89:dc:72:bb:08:23:b4:
                    be:1a:cf:af:b8:1a:af:62:21:d3:d4:a2:78:2f:b6:
                    4a:44:6f:ab:7f:d7:27:21:79:40:2b:db:bf:90:bf:
                    fb:cf:a4:fa:8b:25:f6:ad:f9:73:57:41:49:86:1d:
                    ed:3c:c9:d5:43:e0:ac:8a:4a:88:51:ea:cf:95:f0:
                    50:4b:ee:4c:fc:74:1d:92:00:5f:75:97:23:e4:b1:
                    79:b1:b0:b8:e1:97:38:6c:78:b6:c1:a6:e7:2e:95:
                    39:c8:ed:2a:65:65:b7:09:45:d4:f2:f1:4f:bf:97:
                    9d:98:b7:26:0d:c1:cf:93:d1:55:9f:af:39:6f:71:
                    29:a4:e9:74:48:2c:eb:8a:11:3d:3f:c4:3c:12:fe:
                    0c:d9:c9:fc:2c:77:22:de:c8:bb:8e:05:55:0a:2b:
                    18:38:0f:68:5d:2f:26:ea:cc:ec:04:df:fb:54:c4:
                    83:3b
                Exponent: 65537 (0x10001)
        X509v3 extensions:
            X509v3 Subject Key Identifier: 
                9E:74:83:0D:43:6F:21:68:72:E1:A3:FC:E0:2D:C3:D0:47:55:0C:31
            X509v3 Authority Key Identifier: 
                keyid:13:A0:B6:1F:F5:C7:64:C2:F9:FD:2E:08:F2:19:01:77:54:19:73:7F

            X509v3 Basic Constraints: 
                CA:TRUE
    Signature Algorithm: sha256WithRSAEncryption
         31:c8:c3:5c:31:7c:85:12:e0:01:9c:1a:eb:be:32:f0:19:cd:
         f3:55:e8:13:34:27:39:69:ca:88:1e:e9:44:47:9b:e1:bf:ff:
         3f:65:62:02:9f:ae:be:21:1d:03:83:02:3e:a8:f2:d4:fa:e8:
         14:50:e6:53:9e:e1:90:f9:96:5d:73:f3:da:8d:38:33:6d:5f:
         f9:ce:9b:60:d3:ae:86:18:7f:ef:4a:d1:69:4d:03:a7:e8:a5:
         c4:42:59:50:22:d1:25:bd:a4:22:d1:9c:f9:4c:72:ee:3d:e3:
         e1:c7:b0:c2:16:ba:46:4e:c9:29:91:e0:97:52:d8:3c:be:e2:
         ef:1c:aa:89:6d:ba:75:35:80:12:5d:5c:33:15:6c:fe:1b:1f:
         4a:b4:1a:12:47:d3:4b:cd:d2:96:61:88:69:ac:b4:3c:d5:be:
         52:7e:a0:99:5a:52:65:6a:86:ea:a7:a2:50:66:48:71:e3:82:
         9f:fc:ff:89:58:ef:04:fa:af:76:98:1b:40:d6:71:14:29:1e:
         db:b8:31:47:2b:4b:de:f3:e2:e5:d0:a0:75:1e:b6:d9:32:3f:
         8e:54:c3:92:e1:0f:74:85:0d:e9:27:5b:21:e8:f0:7b:10:3c:
         14:e4:9d:97:65:18:ef:57:ce:de:b9:f7:01:d0:b9:e4:81:7a:
         a3:d2:35:8c
-----BEGIN CERTIFICATE-----
MIIDpDCCAoygAwIBAgIBAjANBgkqhkiG9w0BAQsFADBtMQswCQYDVQQGEwJHQjET
MBEGA1UECAwKRGVyYnlzaGlyZTEOMAwGA1UEBwwFRGVyYnkxFTATBgNVBAoMDFBh
aG8gUHJvamVjdDEQMA4GA1UECwwHVGVzdGluZzEQMA4GA1UEAwwHUm9vdCBDQTAe
Fw0yMTA3MDcxMTE0NDJaFw0yNjA3MDYxMTE0NDJaMGwxCzAJBgNVBAYTAkdCMRMw
EQYDVQQIDApEZXJieXNoaXJlMRUwEwYDVQQKDAxQYWhvIFByb2plY3QxEDAOBgNV
BAsMB1Rlc3RpbmcxHzAdBgNVBAMMFkFsdGVybmF0aXZlIFNpZ25pbmcgQ0EwggEi
MA0GCSqGSIb3DQEBAQUAA4IBDwAwggEKAoIBAQDK9U/CMH39ZXUGACJyCtB0HgAD
qvNkGtTQJYW5LnNyQQYS2VIdORF4LcMN128GBWg6zM42jac6qTF36+kthwB+hnq7
UsIC1+8HT6mIkdZu3RmEidxyuwgjtL4az6+4Gq9iIdPUongvtkpEb6t/1ycheUAr
27+Qv/vPpPqLJfat+XNXQUmGHe08ydVD4KyKSohR6s+V8FBL7kz8dB2SAF91lyPk
sXmxsLjhlzhseLbBpuculTnI7SplZbcJRdTy8U+/l52YtyYNwc+T0VWfrzlvcSmk
6XRILOuKET0/xDwS/gzZyfwsdyLeyLuOBVUKKxg4D2hdLybqzOwE3/tUxIM7AgMB
AAGjUDBOMB0GA1UdDgQWBBSedIMNQ28haHLho/zgLcPQR1UMMTAfBgNVHSMEGDAW
gBQToLYf9cdkwvn9LgjyGQF3VBlzfzAMBgNVHRMEBTADAQH/MA0GCSqGSIb3DQEB
CwUAA4IBAQAxyMNcMXyFEuABnBrrvjLwGc3zVegTNCc5acqIHulER5vhv/8/ZWIC
n66+IR0DgwI+qPLU+ugUUOZTnuGQ+ZZdc/PajTgzbV/5zptg066GGH/vStFpTQOn
6KXEQllQItElvaQi0Zz5THLuPePhx7DCFrpGTskpkeCXUtg8vuLvHKqJbbp1NYAS
XVwzFWz+Gx9KtBoSR9NLzdKWYYhprLQ81b5SfqCZWlJlaobqp6JQZkhx44Kf/P+J
WO8E+q92mBtA1nEUKR7buDFHK0ve8+Ll0KB1HrbZMj+OVMOS4Q90hQ3pJ1sh6PB7
EDwU5J2XZRjvV87eufcB0LnkgXqj0jWM
-----END CERTIFICATE-----
